(dp0
(I1
I2
I8
tp1
F0.5
s(I2
I3
I7
I5
I9
tp2
F-1.0
s(I2
I5
I7
I9
I1
I3
I8
tp3
F0.5
s(I2
I3
I6
I7
I1
I4
I5
tp4
F-1.0
s(I1
I6
I3
I8
tp5
F0.5
s(I1
I2
I3
I4
I5
I6
I9
tp6
F1.0
s(I2
I6
I9
I3
I5
tp7
F-1.0
s(I1
I4
I7
I2
I3
tp8
F1.0
s(I1
I2
I7
I8
I3
I4
I9
tp9
F-1.0
s(I1
I4
I7
I9
I3
I6
I8
tp10
F1.0
s(I1
I2
I9
I3
I4
I5
tp11
F-0.8500000000000001
s(I1
I2
I6
I7
I3
I4
I8
I9
tp12
F0.5
s(I1
I2
I5
tp13
F0.5
s(I4
I7
I9
I3
I6
tp14
F0.5
s(I2
I5
I6
I3
I9
tp15
F0.5
s(I1
I4
I5
I8
I3
I6
I9
tp16
F1.0
s(I1
I3
I8
I2
I5
I6
tp17
F-0.8000000005000001
s(I1
I2
I8
I4
I7
tp18
F0.5
s(I1
I3
I8
I2
I9
tp19
F0.5
s(I3
I2
tp20
F0.5
s(I1
I3
I4
I7
tp21
F0.5449999999999999
s(I1
I3
I7
I8
I2
I4
I5
I9
tp22
F0.5
s(I1
I5
I6
I3
I4
tp23
F0.5
s(I1
I6
I8
I5
I7
tp24
F-1.0
s(I2
I4
I7
I9
I1
I3
I8
tp25
F0.5
s(I3
I6
I7
I8
I1
I4
I5
tp26
F1.0
s(I1
I2
I3
I8
I9
I4
I5
I6
I7
tp27
F1.0
s(I1
I7
I8
I2
I4
tp28
F0.5
s(I1
I5
I6
I4
I8
tp29
F0.5
s(I1
I8
I4
I5
tp30
F0.99995
s(I3
I5
I8
I9
I1
I4
I6
tp31
F-1.0
s(I1
I3
I7
tp32
F0.5
s(I1
I4
I5
I8
I9
I2
I3
I6
I7
tp33
F1.0
s(I3
I7
I8
tp34
F0.5
s(I1
I4
I9
I2
I5
I8
tp35
F0.95
s(I2
I4
I8
I5
I9
tp36
F-1.0
s(I1
I5
I7
I2
I9
tp37
F0.5
s(I1
I2
I5
I3
I7
I9
tp38
F0.8199499999999998
s(I3
I6
I7
I8
I1
I5
I9
tp39
F1.0
s(I1
I2
I5
I7
I4
I8
I9
tp40
F0.5
s(I3
I4
I5
I1
I2
I6
tp41
F0.95
s(I1
I2
I3
I4
I6
tp42
F1.0
s(I2
I7
I8
I3
I5
tp43
F1.0
s(I1
I2
I7
I3
I5
tp44
F0.5
s(I1
I3
I7
I5
I6
tp45
F-1.0
s(I1
I5
I8
I4
I7
tp46
F0.5
s(I1
I3
I8
I5
I6
I7
tp47
F0.995
s(I1
I6
I7
I9
tp48
F0.998015
s(I6
I9
I7
tp49
F0.5
s(I2
I7
I1
I8
tp50
F0.5
s(I1
I5
I7
I4
I6
I8
tp51
F0.95
s(I1
I5
I6
I9
I3
I4
I8
tp52
F1.0
s(I1
I2
I3
I8
I4
I5
I6
tp53
F1.0
s(I2
I5
I8
I1
I9
tp54
F1.0
s(I1
I4
I8
I9
I3
I5
I7
tp55
F1.0
s(I1
I4
I6
I9
I5
I7
I8
tp56
F-1.0
s(I1
I2
I6
I7
I3
I4
I5
tp57
F1.0
s(I1
I2
I5
I6
I9
I3
I4
I7
I8
tp58
F1.0
s(I2
I3
I5
I1
I6
tp59
F0.5
s(I1
I2
I9
I4
I6
tp60
F-1.0
s(I2
I3
I6
I9
I1
I7
I8
tp61
F1.0
s(I1
I2
I6
I8
I3
I4
I5
I9
tp62
F0.5
s(I3
I4
I9
tp63
F0.5
s(I8
I9
I1
I2
tp64
F0.95
s(I1
I3
I7
I2
I6
tp65
F0.5
s(I2
I7
I8
I3
I9
tp66
F-1.0
s(I2
I5
I6
I1
I7
tp67
F-1.0
s(I4
I8
I9
I3
I5
tp68
F-1.0
s(I2
I4
I9
I1
I6
tp69
F0.5
s(I1
I2
I8
I3
I4
I7
tp70
F-0.8000499999999999
s(I1
I3
I5
I8
I2
I6
I9
tp71
F0.5
s(I1
I3
I5
I9
I2
I6
I8
tp72
F1.0
s(I7
I4
tp73
F0.5
s(I6
I7
I5
tp74
F0.5
s(I1
I6
I2
I5
tp75
F-0.8049999999999999
s(I2
I3
I5
I6
I9
tp76
F0.5
s(I2
I3
I5
I8
I6
I7
I9
tp77
F1.0
s(I5
I6
I9
I3
I4
tp78
F0.5
s(I1
I5
I6
I9
I2
I4
I7
tp79
F1.0
s(I1
I6
I8
I9
I2
I4
I5
tp80
F1.0
s(I8
I9
I1
tp81
F0.5
s(I1
I4
I6
I7
I2
I5
I9
tp82
F1.0
s(I1
I5
I7
I8
I2
I3
I4
I9
tp83
F0.995
s(I1
I8
I2
I4
tp84
F0.5
s(I3
I4
I6
I9
I2
I5
I8
tp85
F1.0
s(I1
I3
I8
I2
I4
tp86
F0.5
s(I1
I4
I9
I3
I5
I6
tp87
F0.95
s(I4
I5
I7
I1
I2
tp88
F-1.0
s(I3
I5
I9
I1
I4
I6
tp89
F0.95
s(I1
I5
I7
I2
I3
I9
tp90
F-0.8049999999999999
s(I1
I4
I7
I6
I8
tp91
F1.0
s(I2
I3
I6
I8
I1
I5
I7
I9
tp92
F0.95
s(I3
I4
I6
I7
I1
I5
I8
I9
tp93
F0.95
s(I3
I4
I6
I9
I1
I5
I8
tp94
F1.0
s(I1
I5
I2
I7
tp95
F0.999995
s(I1
I2
I3
I8
I4
I5
I7
tp96
F1.0
s(I3
I5
I6
I7
I1
I4
I8
tp97
F1.0
s(I1
I3
I4
I5
I7
I2
I6
I8
I9
tp98
F1.0
s(I2
I6
I7
I8
I1
I5
I9
tp99
F1.0
s(I1
I3
I6
I7
I2
I5
I8
tp100
F1.0
s(I2
I3
I7
I4
I6
I9
tp101
F-0.8500000000000001
s(I1
I2
I5
I3
I6
I7
tp102
F0.999999995
s(I2
I5
I7
I6
I9
tp103
F-1.0
s(I2
I5
I4
I9
tp104
F0.95
s(I1
I8
I9
I2
I7
tp105
F0.5
s(I1
I3
I6
I2
I7
tp106
F0.5
s(I2
I5
I6
I7
I1
I4
I8
tp107
F0.5
s(I1
I3
I4
I2
I5
I8
tp108
F0.995
s(I2
I3
I1
I9
tp109
F0.95
s(I1
I4
I6
I8
I2
I3
I7
I9
tp110
F0.95
s(I1
I2
I7
I4
I8
I9
tp111
F0.95
s(I1
I3
I4
I9
I2
I5
I6
tp112
F-1.0
s(I1
I6
I7
I3
I5
I9
tp113
F0.95
s(I1
I7
I3
I4
tp114
F0.5
s(I2
I3
I4
I7
I8
I1
I5
I6
I9
tp115
F1.0
s(I2
I4
I5
I1
I7
tp116
F0.5
s(I1
I2
I3
I4
I6
I7
I8
tp117
F1.0
s(I5
I8
I4
tp118
F0.5
s(I2
I3
I4
I6
I1
I5
I7
tp119
F1.0
s(I2
I3
I6
I4
I7
tp120
F-1.0
s(I3
I4
I5
I8
I9
tp121
F-1.0
s(I6
I7
I8
I1
I5
tp122
F-1.0
s(I4
I7
tp123
F0.5
s(I1
I2
I4
I5
I7
I3
I6
I8
I9
tp124
F1.0
s(I2
I5
I8
I1
I4
tp125
F1.0
s(I2
I3
I4
I1
I9
tp126
F-1.0
s(I1
I9
I3
I7
tp127
F0.995
s(I1
I2
I7
I3
I4
I6
tp128
F0.995
s(I1
I3
I5
I7
I2
I8
I9
tp129
F1.0
s(I1
I3
I6
I9
I4
I5
I8
tp130
F1.0
s(I1
I4
I9
I3
I5
tp131
F-1.0
s(I1
I4
I5
I2
I8
tp132
F0.5
s(I1
I5
I8
I2
I9
tp133
F0.5
s(I1
I2
I4
I7
I3
I5
I8
tp134
F1.0
s(I1
I2
I4
I5
I6
I3
I7
I8
I9
tp135
F1.0
s(I3
I4
I5
I8
I1
I2
I9
tp136
F0.5
s(I1
I2
I4
I7
I9
I3
I5
I6
I8
tp137
F1.0
s(I1
I2
I8
I3
I5
I9
tp138
F-0.8500000000000001
s(I3
I6
I8
I1
I5
I9
tp139
F0.95
s(I5
I7
I2
tp140
F0.5
s(I1
I2
I4
I9
I3
I5
I6
I8
tp141
F0.999999995
s(I2
I5
I6
I9
I3
I4
I7
I8
tp142
F0.95
s(I2
I4
I1
I7
tp143
F0.5
s(I2
I4
I5
I8
tp144
F0.5
s(I1
I2
I6
I8
I4
I5
I7
tp145
F-1.0
s(I1
I7
I2
I8
tp146
F0.815
s(I5
I9
I7
tp147
F0.5
s(I1
I3
I5
I6
I8
tp148
F0.5
s(I1
I3
I4
I6
I2
I5
I9
tp149
F-1.0
s(I1
I3
I4
I7
I9
I2
I5
I6
I8
tp150
F1.0
s(I3
I8
I6
I7
tp151
F0.5
s(I1
I4
I8
I5
I7
I9
tp152
F0.95
s(I3
I4
I7
I8
I9
tp153
F1.0
s(I2
I3
I6
I7
I1
I4
I9
tp154
F-1.0
s(I1
I4
I2
I8
tp155
F0.9815
s(I3
I5
I9
I1
I2
tp156
F0.5
s(I1
I6
I8
I9
I2
I4
I7
tp157
F0.5
s(I1
I2
I3
I4
I6
I5
I7
I8
I9
tp158
F1.0
s(I1
I2
I6
I5
I8
I9
tp159
F-0.8500000000000001
s(I2
I6
I1
I4
tp160
F0.9815
s(I3
I5
I4
tp161
F0.5
s(I1
I6
tp162
F0.5
s(I2
I5
I9
tp163
F0.5
s(I3
I7
I1
I9
tp164
F-0.8500000000000001
s(I1
I3
I8
I2
I4
I9
tp165
F0.5
s(I2
I4
I8
I1
I3
I7
tp166
F0.95
s(I1
I3
I5
I4
I6
I9
tp167
F0.95
s(I1
I3
I8
I6
I9
tp168
F0.5
s(I4
I5
I9
I3
I6
tp169
F0.5
s(I6
I7
I9
I4
I8
tp170
F0.5
s(I1
I5
I9
I6
I7
tp171
F1.0
s(I6
I7
I8
I9
I1
I3
I4
tp172
F1.0
s(I1
I5
I9
tp173
F0.5
s(I3
I4
I5
I8
I2
I6
I9
tp174
F1.0
s(I1
I8
I2
tp175
F0.5
s(I1
I3
I4
I6
I2
I5
I7
tp176
F-1.0
s(I1
I4
I9
I2
I3
tp177
F0.5
s(I1
I2
I6
I4
I5
I8
tp178
F0.995
s(I1
I2
I3
I4
I5
I6
I8
tp179
F1.0
s(I1
I4
I7
I5
I9
tp180
F1.0
s(I3
I4
I1
I5
tp181
F-0.8500000000000001
s(I1
I2
I3
I6
I9
tp182
F1.0
s(I4
I5
I8
I2
I3
tp183
F-1.0
s(I2
I4
I6
I7
I9
I1
I3
I5
I8
tp184
F0.5
s(I1
I4
I5
I3
I7
tp185
F0.5
s(I1
I2
I7
I9
I5
I6
I8
tp186
F-1.0
s(I3
I4
I5
I7
I8
tp187
F-1.0
s(I1
I5
I6
I9
I4
I7
I8
tp188
F1.0
s(I1
I5
I8
I4
I6
I9
tp189
F0.95
s(I1
I3
I6
I8
I2
I4
I5
tp190
F1.0
s(I5
I6
I9
I2
I3
tp191
F-1.0
s(I2
I3
I7
I9
I1
I4
I5
tp192
F-1.0
s(I4
I7
I8
I3
I5
I9
tp193
F0.95
s(I2
I3
I5
I9
I1
I4
I7
I8
tp194
F0.95
s(I1
I5
I9
I2
I7
tp195
F1.0
s(I3
I4
I8
I6
I9
tp196
F1.0
s(I1
I2
I7
I8
I5
I6
I9
tp197
F-1.0
s(I4
I6
I7
I1
I9
tp198
F-1.0
s(I1
I4
I5
I7
I2
I3
I6
tp199
F1.0
s(I1
I6
I8
tp200
F0.5
s(I4
I8
I9
tp201
F0.5
s(I1
I3
I6
I9
I2
I4
I5
tp202
F1.0
s(I2
I5
I7
I1
I6
tp203
F0.5
s(I2
I3
I7
I1
I9
tp204
F-1.0
s(I1
I3
I7
I4
I6
I8
tp205
F0.95
s(I1
I2
I5
I4
I8
tp206
F0.5
s(I5
I7
I9
I1
I3
I8
tp207
F0.5
s(I2
I3
I4
I6
I8
tp208
F0.5
s(I5
I4
tp209
F0.5
s(I1
I5
I6
I7
I8
I2
I3
I4
I9
tp210
F1.0
s(I1
I6
I9
I3
I4
tp211
F0.5
s(I5
I8
I2
I4
tp212
F0.5
s(I1
I2
I6
I3
I7
I8
tp213
F-0.8500000000000001
s(I1
I2
I4
I9
I3
I6
I7
tp214
F-1.0
s(I2
I6
I7
I8
I1
I4
I9
tp215
F-1.0
s(I1
I2
I6
I9
tp216
F0.9981998182
s(I1
I7
I8
I3
I5
tp217
F0.5
s(I1
I2
I8
I3
I5
I6
tp218
F-0.985
s(I1
I2
I6
I7
I4
I8
I9
tp219
F0.5
s(I1
I8
I3
I7
tp220
F0.5
s(I1
I2
I4
I9
I5
I6
I7
tp221
F-1.0
s(I4
I5
I8
I2
I6
I9
tp222
F-0.8500000000000001
s(I1
I3
I5
I2
I6
I8
tp223
F0.99995
s(I1
I2
I6
I7
I3
I8
I9
tp224
F1.0
s(I1
I2
I3
I5
I7
tp225
F1.0
s(I5
I8
I9
I1
I2
tp226
F-1.0
s(I1
I7
I8
I3
I5
I6
tp227
F0.95
s(I2
I6
I8
I9
I1
I5
I7
tp228
F1.0
s(I1
I2
I6
I9
I3
I4
I5
I7
tp229
F0.95
s(I2
I8
tp230
F0.5
s(I1
I3
I6
I8
I2
I4
I5
I9
tp231
F0.5
s(I1
I2
I7
I5
I6
tp232
F-1.0
s(I1
I5
I7
I6
I9
tp233
F-1.0
s(I3
I9
I1
I7
tp234
F0.95
s(I1
I2
I5
I7
I8
I9
tp235
F0.9995
s(I1
I3
I9
I2
I4
I6
tp236
F-0.8049999999999999
s(I1
I3
I8
I9
I2
I6
I7
tp237
F0.5
s(I4
I7
I5
tp238
F0.5
s(I3
I6
I7
I1
I8
tp239
F0.5
s(I4
I5
I9
I1
I2
tp240
F-1.0
s(I1
I2
I3
I7
I4
I6
I9
tp241
F1.0
s(I1
I7
I8
I9
I2
I4
I6
tp242
F1.0
s(I3
I9
I1
I5
tp243
F0.95
s(I1
I9
I6
I7
tp244
F0.5
s(I1
I2
I6
I7
I5
I8
I9
tp245
F0.5
s(I2
I6
I4
tp246
F0.5
s(I1
I4
I7
I2
I6
tp247
F1.0
s(I1
I2
I9
I5
I7
tp248
F-1.0
s(I2
I4
I5
I9
I1
I7
I8
tp249
F0.5
s(I7
I8
I3
I6
tp250
F0.995
s(I1
I3
I5
I6
I2
I8
I9
tp251
F-1.0
s(I1
I4
I9
I6
I7
I8
tp252
F0.95
s(I1
I4
I9
I5
I7
I8
tp253
F0.95
s(I1
I3
I4
I8
I2
I5
I6
tp254
F1.0
s(I1
I2
I4
I7
I8
tp255
F-1.0
s(I1
I6
I8
I4
I7
I9
tp256
F0.5
s(I3
I4
I8
I5
I6
I7
tp257
F0.5
s(I1
I9
I2
I8
tp258
F0.98195
s(I2
I3
tp259
F0.5
s(I2
I5
I6
tp260
F0.5
s(I1
I5
I8
I3
I4
I9
tp261
F0.95
s(I2
I3
I4
I8
I1
I5
I6
I9
tp262
F0.95
s(I1
I4
I6
I7
I3
I8
I9
tp263
F1.0
s(I1
I2
I6
I4
I5
I7
tp264
F0.815
s(I1
I6
I9
I2
I8
tp265
F-1.0
s(I1
I2
I4
I9
tp266
F0.995499955
s(I1
I2
I8
I9
I3
I4
I5
I7
tp267
F0.995
s(I1
I5
I6
I3
I9
tp268
F0.5
s(I6
I9
I2
tp269
F0.5
s(I1
I6
I5
I7
tp270
F-0.985
s(I3
I5
I7
I6
I9
tp271
F1.0
s(I1
I3
I8
I9
I2
I4
I6
tp272
F-1.0
s(I1
I2
I3
I6
I5
I8
I9
tp273
F1.0
s(I1
I7
I8
I2
I3
tp274
F0.5
s(I4
I9
I7
tp275
F0.5
s(I5
I6
I8
I1
I2
tp276
F-1.0
s(I1
I4
I6
I8
tp277
F0.995
s(I1
I4
I5
I6
I8
tp278
F0.5
s(I3
I4
I9
I1
I7
I8
tp279
F0.995
s(I1
I2
I9
I3
I5
I6
tp280
F0.9999995
s(I1
I5
I8
I6
I9
tp281
F-1.0
s(I2
I9
I5
tp282
F0.5
s(I2
I6
I8
I1
I3
I5
tp283
F-0.8500000000000001
s(I1
I3
I6
I9
I2
I4
I7
tp284
F1.0
s(I1
I3
I9
I4
I7
tp285
F0.5
s(I1
I2
I4
I5
I3
I6
I8
tp286
F-1.0
s(I3
I6
I9
I1
I2
tp287
F1.0
s(I1
I4
I6
I7
I2
I3
I9
tp288
F1.0
s(I1
I5
I7
I3
I8
I9
tp289
F0.95
s(I2
I4
I5
tp290
F0.5
s(I4
I5
I7
I9
I1
I3
I8
tp291
F-1.0
s(I1
I3
I5
I4
I9
tp292
F0.5
s(I1
I2
I3
I5
I6
I7
I8
tp293
F1.0
s(I1
I2
I6
I9
I4
I7
I8
tp294
F1.0
s(I1
I4
I6
I8
I2
I7
I9
tp295
F0.5
s(I6
I7
I8
tp296
F0.5
s(I1
I2
I9
I6
I8
tp297
F0.5
s(I6
I8
I1
tp298
F0.5
s(I2
I3
I5
I8
I4
I7
I9
tp299
F1.0
s(I1
I3
I9
I4
I5
tp300
F-1.0
s(I3
I4
I8
I1
I7
tp301
F0.5
s(I1
I9
I8
tp302
F0.5
s(I1
I3
I5
I8
tp303
F0.999995
s(I4
I5
I7
tp304
F0.5
s(I2
I5
I9
I1
I8
tp305
F0.5
s(I1
I2
I9
I4
I5
tp306
F-1.0
s(I2
I4
I9
I3
I8
tp307
F0.5
s(I1
I3
I9
I6
I8
tp308
F0.5
s(I1
I3
I4
I2
I7
I9
tp309
F0.5
s(I2
I3
I6
I5
I9
tp310
F-1.0
s(I2
I8
I6
tp311
F0.5
s(I1
I4
I5
I8
I3
I6
I7
tp312
F1.0
s(I1
I2
I6
I9
I3
I4
I5
tp313
F-1.0
s(I6
I9
tp314
F0.5
s(I1
I4
I7
I9
I5
I6
I8
tp315
F1.0
s(I2
I5
I6
I4
I8
tp316
F0.5
s(I1
I2
I5
I7
I3
I4
I8
tp317
F0.5
s(I2
I7
I4
tp318
F0.5
s(I1
I5
I9
I3
I4
tp319
F1.0
s(I1
I5
I6
I9
I3
I4
I7
tp320
F1.0
s(I1
I4
I7
I8
I3
I5
I6
tp321
F1.0
s(I3
I4
I6
I8
I1
I5
I7
I9
tp322
F0.95
s(I1
I6
I7
I4
I5
tp323
F0.5
s(I1
I4
I9
I5
I6
tp324
F0.5
s(I3
I6
I8
I4
I7
tp325
F-1.0
s(I1
I6
I5
I9
tp326
F0.5
s(I1
I2
I4
I6
I3
I5
I8
tp327
F-1.0
s(I1
I6
I8
I4
I9
tp328
F0.5
s(I1
I2
I8
I4
I6
I7
tp329
F0.995
s(I1
I2
I6
I7
I3
I4
I5
I9
tp330
F0.5
s(I1
I7
I6
tp331
F0.5
s(I1
I6
I9
I2
I3
tp332
F0.5
s(I2
I5
I6
I7
I9
I1
I3
I4
I8
tp333
F0.5
s(I6
I9
I3
I4
tp334
F0.5
s(I2
I4
I7
I1
I8
tp335
F0.5
s(I1
I3
I4
I8
I2
I6
I7
I9
tp336
F0.5
s(I3
I8
I1
I5
tp337
F-0.8500000000000001
s(I2
I6
I1
I7
tp338
F-0.8500000000000001
s(I2
I6
I7
I8
I9
tp339
F0.5
s(I1
I3
I5
I9
I2
I4
I7
tp340
F1.0
s(I1
I3
I9
I5
I7
tp341
F1.0
s(I1
I4
I9
I3
I8
tp342
F0.5
s(I4
I5
I6
I2
I3
tp343
F1.0
s(I1
I6
I8
I2
I4
I7
tp344
F0.5
s(I3
I9
I1
I2
tp345
F0.95
s(I1
I2
I7
I3
I5
I8
tp346
F0.99995
s(I1
I2
I3
I7
tp347
F0.35149864998650004
s(I1
I5
I6
I4
I7
I8
tp348
F-0.8500000000000001
s(I1
I5
I7
I8
I2
I4
I9
tp349
F0.5
s(I3
I5
I7
I9
I1
I4
I6
tp350
F1.0
s(I1
I2
I7
I4
I5
tp351
F-1.0
s(I1
I5
I6
I8
I3
I4
I7
tp352
F0.5
s(I1
I2
I4
I7
I3
I5
I6
tp353
F1.0
s(I1
I2
I4
I9
I3
I5
I7
tp354
F1.0
s(I1
I2
I4
I7
I3
I8
I9
tp355
F1.0
s(I1
I4
I5
I6
I7
I9
tp356
F0.95
s(I2
I5
I6
I7
tp357
F0.95
s(I1
I4
I8
I3
I6
tp358
F-1.0
s(I5
I9
I8
tp359
F0.5
s(I5
I6
I7
I2
I3
tp360
F-1.0
s(I1
I2
I6
I8
I4
I5
I9
tp361
F0.5
s(I4
I8
I1
I7
tp362
F0.5
s(I9
I7
tp363
F0.5
s(I1
I4
I2
I6
tp364
F0.995
s(I6
I7
I9
I3
I4
tp365
F0.5
s(I1
I2
I7
I9
I4
I5
I6
tp366
F1.0
s(I1
I9
I5
I7
tp367
F0.9815
s(I1
I3
I6
I8
I4
I7
I9
tp368
F0.5
s(I4
I8
I9
I3
I5
I6
tp369
F0.95
s(I1
I5
I8
I9
I2
I4
I7
tp370
F1.0
s(I1
I3
I4
I7
I8
tp371
F-1.0
s(I1
I3
I4
I6
I5
I8
I9
tp372
F1.0
s(I1
I4
I6
I2
I3
tp373
F0.5
s(I1
I3
I6
I7
tp374
F0.95
s(I1
I2
I8
I3
I7
I9
tp375
F0.995
s(I3
I5
I7
I1
I9
tp376
F1.0
s(I1
I2
I6
I8
I3
I5
I7
I9
tp377
F0.99999995
s(I2
I3
I5
I9
I1
I4
I6
tp378
F-1.0
s(I1
I4
I8
I5
I6
I9
tp379
F0.95
s(I1
I2
I4
I9
I5
I6
I7
I8
tp380
F0.9999995
s(I1
I2
I4
I9
I3
I7
I8
tp381
F-1.0
s(I1
I6
I7
I4
I8
tp382
F0.5
s(I1
I4
I8
I9
I3
I6
I7
tp383
F1.0
s(I1
I6
I7
I8
I2
I4
I9
tp384
F0.5
s(I1
I3
I2
I4
tp385
F0.5
s(I1
I2
I4
I3
I6
tp386
F-1.0
s(I9
I8
tp387
F0.5
s(I2
I6
I7
I3
I4
tp388
F0.5
s(I6
I7
I1
tp389
F0.5
s(I1
I2
I4
I7
I8
I3
I5
I6
I9
tp390
F1.0
s(I2
I5
I9
I3
I6
tp391
F0.5
s(I1
I2
I4
I5
I7
tp392
F-1.0
s(I9
I1
tp393
F0.5
s(I1
I2
I9
I3
I6
I8
tp394
F0.9995499995
s(I1
I3
I9
I2
I5
tp395
F-1.0
s(I1
I3
I4
I2
I5
I6
tp396
F0.995
s(I1
I6
I8
I2
I9
tp397
F0.5
s(I1
I2
I5
I6
I7
I3
I4
I8
I9
tp398
F0.5
s(I8
I9
I5
tp399
F0.5
s(I1
I5
I6
I8
I2
I3
I7
tp400
F0.5
s(I1
I3
I4
I5
I6
I2
I7
I8
I9
tp401
F1.0
s(I2
I8
I9
tp402
F0.5
s(I1
I2
I3
I8
I4
I7
I9
tp403
F1.0
s(I1
I3
I5
I7
I2
I4
I9
tp404
F1.0
s(I1
I5
I6
I7
I2
I4
I8
tp405
F0.5
s(I2
I7
tp406
F0.5
s(I1
I2
I5
I3
I4
tp407
F0.5
s(I3
I7
I9
I5
I6
tp408
F-1.0
s(I2
I4
I7
I8
I9
tp409
F0.5
s(I1
I6
I7
I2
I5
tp410
F-1.0
s(I1
I5
I9
I6
I8
tp411
F1.0
s(I1
I2
I4
I6
I7
I8
tp412
F0.9995
s(I1
I2
I4
I3
I7
I8
tp413
F-0.8500000000000001
s(I1
I2
I4
I7
I5
I8
I9
tp414
F1.0
s(I1
I7
I8
I5
I6
tp415
F-1.0
s(I2
I4
I8
I1
I6
I7
tp416
F0.95
s(I1
I2
I3
I4
I6
I8
I9
tp417
F1.0
s(I3
I9
I4
tp418
F0.5
s(I1
I3
I9
I5
I6
I7
tp419
F0.95
s(I2
I3
I5
I7
I1
I8
I9
tp420
F1.0
s(I5
I6
I1
tp421
F0.5
s(I1
I2
I4
I5
I3
I8
I9
tp422
F-1.0
s(I1
I8
I9
I6
I7
tp423
F0.5
s(I1
I5
I8
I3
I7
tp424
F0.5
s(I3
I7
I9
I2
I4
tp425
F0.5
s(I1
I2
I8
I6
I9
tp426
F-1.0
s(I1
I2
I4
I3
I9
tp427
F-1.0
s(I1
I5
I6
I8
I9
tp428
F-1.0
s(I1
I3
I5
I2
I4
I7
tp429
F0.5
s(I3
I4
I6
I7
I5
I8
I9
tp430
F1.0
s(I1
I3
I7
I9
I4
I5
I8
tp431
F-1.0
s(I1
I2
I6
I8
I9
I3
I4
I5
I7
tp432
F1.0
s(I1
I3
I6
I2
I5
I8
tp433
F0.995
s(I2
I9
I1
I3
tp434
F0.5
s(I1
I2
I4
I6
I7
I3
I5
I8
I9
tp435
F1.0
s(I2
I7
I8
I3
I4
tp436
F0.5
s(I1
I2
I5
I6
I8
I3
I4
I7
I9
tp437
F1.0
s(I1
I2
I6
I7
I8
tp438
F-1.0
s(I3
I4
I7
I5
I6
I9
tp439
F0.95
s(I1
I5
I8
I2
I7
I9
tp440
F0.5
s(I1
I2
I6
I9
I3
I7
I8
tp441
F-1.0
s(I6
I8
I4
tp442
F0.5
s(I1
I4
I5
I6
I2
I3
I8
tp443
F1.0
s(I1
I2
I7
I9
I3
I4
I6
tp444
F1.0
s(I3
I6
I5
tp445
F0.5
s(I1
I2
I9
I3
I4
tp446
F0.5
s(I1
I2
I6
I7
I4
I5
I8
tp447
F1.0
s(I1
I5
I7
I8
I9
tp448
F1.0
s(I1
I2
I4
I6
I3
I5
I7
I9
tp449
F0.995
s(I1
I5
I7
I9
I2
I4
I6
tp450
F1.0
s(I5
I7
I1
I3
tp451
F-0.8500000000000001
s(I1
I5
I7
I2
I6
tp452
F0.5
s(I1
I4
I7
I9
I2
I5
I8
tp453
F1.0
s(I2
I4
I6
I8
I1
I5
I9
tp454
F1.0
s(I1
I3
I6
I7
I2
I4
I5
tp455
F1.0
s(I1
I7
I9
I3
I6
tp456
F1.0
s(I1
I2
I3
I4
I9
tp457
F1.0
s(I5
I9
I3
tp458
F0.5
s(I1
I2
I3
I7
I5
I8
I9
tp459
F1.0
s(I1
I4
I6
tp460
F0.5
s(I1
I6
I9
I3
I7
I8
tp461
F0.995
s(I1
I2
I3
I8
I5
I6
I7
tp462
F1.0
s(I3
I4
I6
I1
I8
tp463
F0.5
s(I2
I4
I6
I7
I1
I8
I9
tp464
F1.0
s(I2
I4
I6
I8
I1
I3
I5
I9
tp465
F0.95
s(I1
I2
I3
I9
I4
I5
I6
tp466
F1.0
s(I1
I5
I6
I7
I9
tp467
F-1.0
s(I1
I4
I7
I9
I3
I5
I6
tp468
F1.0
s(I2
I4
I8
I1
I7
I9
tp469
F0.95
s(I2
I3
I8
I4
I7
I9
tp470
F0.95
s(I2
I3
I4
I8
I1
I7
I9
tp471
F-1.0
s(I3
I7
I6
tp472
F0.5
s(I1
I2
I4
I7
tp473
F0.9995454950499549
s(I4
I8
I9
I1
I3
tp474
F-1.0
s(I1
I8
I6
tp475
F0.5
s(I4
I6
I3
tp476
F0.5
s(I1
I2
I8
I3
I4
I9
tp477
F0.9999995
s(I1
I4
I6
I5
I9
tp478
F0.5
s(I3
I8
I4
tp479
F0.5
s(I1
I3
I4
I9
I2
I5
I8
tp480
F1.0
s(I1
I2
I5
I6
I8
tp481
F0.5
s(I3
I4
I5
I6
I9
tp482
F0.5
s(I1
I6
I2
I9
tp483
F0.5
s(I2
I6
I8
I4
I5
tp484
F0.5
s(I2
I4
I7
I5
I8
tp485
F0.5
s(I4
I5
I1
I2
tp486
F0.95
s(I1
I6
I8
I3
I4
I5
tp487
F0.95
s(I6
I7
I2
I3
tp488
F-0.8500000000000001
s(I1
I4
I3
I9
tp489
F0.99995
s(I2
I4
I8
I1
I7
tp490
F0.5
s(I2
I7
I8
I1
I9
tp491
F-1.0
s(I1
I5
I6
I2
I7
tp492
F0.5
s(I2
I6
I7
I4
I9
tp493
F0.5
s(I1
I2
I3
I5
I4
I6
I9
tp494
F1.0
s(I1
I3
I5
I8
I9
I2
I4
I6
I7
tp495
F1.0
s(I3
I4
I6
I9
I1
I5
I7
tp496
F1.0
s(I1
I2
I7
I9
I3
I4
I6
I8
tp497
F0.9995
s(I1
I4
I8
I9
I2
I3
I6
I7
tp498
F0.95
s(I1
I2
I7
I8
I3
I6
I9
tp499
F1.0
s(I2
I3
I5
I4
I9
tp500
F0.5
s(I1
I2
I5
I7
I9
tp501
F-1.0
s(I3
I4
I7
I8
I5
I6
I9
tp502
F-1.0
s(I3
I4
I7
tp503
F0.5
s(I2
I3
I9
I1
I8
tp504
F0.5
s(I1
I2
I8
I9
I3
I5
I7
tp505
F1.0
s(I1
I4
I8
I2
I5
I7
tp506
F0.5
s(I1
I2
I3
I7
I4
I5
I8
tp507
F1.0
s(I3
I4
I7
I8
I1
I6
I9
tp508
F-1.0
s(I1
I2
I4
I3
I5
I9
tp509
F0.95
s(I1
I2
I7
I9
I4
I5
I8
tp510
F-1.0
s(I4
I5
I2
I3
tp511
F0.95
s(I1
I6
I8
I5
I9
tp512
F0.5
s(I1
I4
I8
I7
I9
tp513
F1.0
s(I1
I4
I6
I5
I7
I8
tp514
F-0.8500000000000001
s(I1
I3
I7
I2
I9
tp515
F0.5
s(I1
I3
I5
I6
tp516
F0.5
s(I2
I6
I7
I1
I4
I5
tp517
F0.95
s(I1
I4
I5
I8
I2
I3
I7
tp518
F0.5
s(I1
I3
I6
I4
I5
tp519
F1.0
s(I1
I5
I7
I4
I6
I9
tp520
F-0.8049999999999999
s(I1
I5
tp521
F0.5
s(I1
I6
I4
tp522
F0.5
s(I1
I7
I9
I3
I6
I8
tp523
F0.995
s(I1
I9
I5
tp524
F0.5
s(I4
I5
I2
tp525
F0.5
s(I1
I2
I4
I8
I3
I6
I7
I9
tp526
F0.99995
s(I1
I7
I3
I8
tp527
F0.995
s(I3
I6
I9
I1
I7
tp528
F1.0
s(I2
I5
I7
I4
I9
tp529
F0.5
s(I1
I3
I7
I5
I8
tp530
F-1.0
s(I1
I5
I7
I9
I3
I6
I8
tp531
F1.0
s(I1
I8
I3
I4
tp532
F0.5
s(I2
I4
I6
I8
I1
I5
I7
tp533
F1.0
s(I1
I3
I4
I5
I6
I8
tp534
F0.995
s(I1
I7
I8
I4
I5
tp535
F-1.0
s(I1
I4
I5
I6
I3
I7
I8
tp536
F1.0
s(I1
I6
I7
I8
I2
I3
I4
tp537
F0.5
s(I1
I2
I8
I4
I6
I9
tp538
F0.95
s(I2
I3
I7
I4
I9
tp539
F0.5
s(I1
I3
I9
I4
I6
tp540
F-1.0
s(I2
I4
I8
I9
I3
I5
I6
I7
tp541
F0.95
s(I1
I3
I7
I2
I4
I9
tp542
F0.995
s(I1
I6
I7
I2
I3
I5
tp543
F0.995
s(I1
I4
I5
I2
I7
tp544
F0.5
s(I1
I2
I4
I5
I3
I7
I8
I9
tp545
F0.95
s(I1
I5
I8
I2
I4
tp546
F0.5
s(I1
I2
I3
I7
I8
tp547
F1.0
s(I1
I2
I4
I8
I9
tp548
F-1.0
s(I1
I7
I3
tp549
F0.5
s(I2
I3
I6
I9
I1
I5
I8
tp550
F1.0
s(I1
I4
I5
I6
I3
I8
I9
tp551
F1.0
s(I1
I2
I7
I8
tp552
F-0.8000198000019818
s(I1
I4
I8
I2
I7
tp553
F0.5
s(I1
I3
I5
I4
I6
tp554
F0.5
s(I1
I7
I8
I3
I4
I9
tp555
F0.99815
s(I1
I5
I9
I3
I7
tp556
F1.0
s(I1
I2
I5
I7
I3
I8
I9
tp557
F-1.0
s(I4
I7
I9
tp558
F0.5
s(I4
I6
I2
I8
tp559
F-0.8500000000000001
s(I1
I6
I7
I9
I3
I4
I5
tp560
F1.0
s(I1
I4
I6
I2
I7
tp561
F0.5
s(I1
I2
I9
I6
I7
I8
tp562
F0.9995
s(I1
I9
I2
I5
tp563
F0.995
s(I3
I4
I5
I7
I1
I2
I6
tp564
F1.0
s(I1
I4
I8
I9
I2
I3
I5
tp565
F1.0
s(I1
I8
I9
I2
I4
I7
tp566
F0.9995
s(I5
I3
tp567
F0.5
s(I3
I4
I6
I1
I9
tp568
F-1.0
s(I1
I5
I7
I3
I9
tp569
F-1.0
s(I3
I7
I9
tp570
F0.5
s(I1
I2
I3
I7
I5
I6
I8
tp571
F1.0
s(I4
I8
I9
I5
I6
tp572
F0.5
s(I4
I7
I9
I1
I3
tp573
F-1.0
s(I1
I4
I7
I9
I2
I3
I5
tp574
F1.0
s(I1
I2
I8
I3
I6
tp575
F-1.0
s(I2
I3
I6
I1
I4
tp576
F-1.0
s(I1
I4
I6
I8
I3
I5
I9
tp577
F-1.0
s(I1
I3
I8
I4
I7
tp578
F0.5
s(I2
I4
I7
I6
I9
tp579
F-1.0
s(I1
I2
I3
I6
I7
I8
I9
tp580
F1.0
s(I2
I5
I6
I9
I1
I3
I8
tp581
F0.5
s(I2
I4
I9
I5
I8
tp582
F0.5
s(I1
I4
I8
I6
I7
tp583
F0.5
s(I1
I2
I4
I8
I3
I5
I6
tp584
F-1.0
s(I1
I2
I6
I8
I9
tp585
F-1.0
s(I1
I5
I4
I6
tp586
F0.9995
s(I4
I9
I3
tp587
F0.5
s(I1
I2
I6
I3
I8
tp588
F0.5
s(I2
I4
I6
I1
I9
tp589
F-1.0
s(I3
I8
I9
I6
I7
tp590
F0.5
s(I1
I3
I6
I9
tp591
F0.995
s(I2
I9
tp592
F0.5
s(I1
I2
I8
I9
tp593
F0.8199999999999982
s(I1
I2
I7
I9
I4
I5
I6
I8
tp594
F0.995
s(I2
I6
I9
I1
I3
tp595
F0.5
s(I4
I6
I9
I2
I8
tp596
F-1.0
s(I1
I4
I9
I2
I6
tp597
F0.5
s(I1
I8
I9
I4
I6
tp598
F-1.0
s(I1
I8
I9
I2
I5
I6
tp599
F0.9995
s(I2
I8
I1
I5
tp600
F-0.8500000000000001
s(I1
I4
I7
I5
I6
tp601
F1.0
s(I1
I2
I7
I9
I3
I4
I5
tp602
F-1.0
s(I7
I8
I9
I1
I3
tp603
F1.0
s(I1
I5
I8
I9
I2
I4
I6
tp604
F1.0
s(I3
I4
I8
tp605
F0.5
s(I1
I2
I5
I8
tp606
F0.99995455
s(I2
I6
I9
I3
I8
tp607
F0.5
s(I1
I3
I8
I9
I2
I4
I5
I7
tp608
F0.99999995
s(I2
I4
I5
I8
I1
I3
I7
tp609
F1.0
s(I1
I3
I4
I6
I5
I7
I8
I9
tp610
F0.95
s(I1
I4
I8
I3
I5
tp611
F-1.0
s(I1
I3
I6
I7
I2
I4
I9
tp612
F0.5
s(I1
I3
I5
I6
I4
I7
I9
tp613
F-1.0
s(I1
I7
I4
I5
tp614
F0.365
s(I1
I2
I4
I8
I9
I3
I5
I6
I7
tp615
F1.0
s(I6
I7
I4
tp616
F0.5
s(I6
I8
I5
tp617
F0.5
s(I1
I7
I8
I4
I5
I9
tp618
F0.365
s(I1
I6
I7
I3
I4
tp619
F0.5
s(I1
I4
I6
I3
I9
tp620
F1.0
s(I1
I6
I7
I2
I4
I8
tp621
F0.5
s(I4
I6
I7
I8
I2
I3
I5
tp622
F-1.0
s(I3
I5
I6
I9
I1
I2
I7
tp623
F1.0
s(I1
I2
I5
I6
I3
I4
I7
tp624
F0.5
s(I1
I5
I9
I2
I8
tp625
F1.0
s(I1
I4
I6
I9
I2
I3
I5
tp626
F-1.0
s(I2
I5
I7
I8
I9
tp627
F0.5
s(I1
I4
I7
I8
I9
tp628
F1.0
s(I1
I2
I5
I7
I6
I8
I9
tp629
F1.0
s(I2
I5
I7
I1
I3
tp630
F1.0
s(I1
I2
I3
I8
I6
I7
I9
tp631
F1.0
s(I8
I5
tp632
F0.5
s(I1
I5
I6
I8
I2
I3
I9
tp633
F0.5
s(I1
I2
I5
I4
I7
tp634
F0.5
s(I4
I8
I3
I5
tp635
F0.95
s(I1
I5
I8
I2
I3
I7
tp636
F0.95
s(I1
I4
I6
I2
I8
tp637
F-1.0
s(I1
I4
I8
I3
I7
I9
tp638
F0.95
s(I5
I7
I9
I3
I8
tp639
F0.5
s(I1
I3
I9
I2
I4
I5
tp640
F0.95
s(I1
I3
I4
I9
tp641
F0.995
s(I1
I3
I4
I6
I2
I7
I9
tp642
F-1.0
s(I1
I2
I4
I9
I3
I5
I7
I8
tp643
F0.995
s(I1
I2
I9
I5
I6
I8
tp644
F0.9999995
s(I3
I4
I5
I9
I1
I2
I6
tp645
F0.5
s(I2
I3
I5
I6
I4
I7
I8
tp646
F-1.0
s(I2
I7
I8
I5
I9
tp647
F-1.0
s(I3
I8
I9
I1
I4
tp648
F-1.0
s(I1
I4
I5
I7
I9
tp649
F-1.0
s(I2
I5
I6
I1
I4
I7
tp650
F0.95
s(I4
I6
I7
I2
I8
tp651
F-1.0
s(I2
I6
I8
I1
I5
I9
tp652
F0.95
s(I1
I4
I6
I5
I7
I9
tp653
F-0.8500000000000001
s(I1
I3
I7
I9
I2
I4
I5
tp654
F-1.0
s(I1
I3
I5
I8
I2
I4
I6
I9
tp655
F0.9995
s(I1
I8
I9
I3
I6
tp656
F1.0
s(I2
I3
I6
I8
I1
I4
I5
tp657
F-1.0
s(I2
I4
I9
I5
I7
tp658
F-1.0
s(I2
I4
I7
I1
I6
tp659
F0.5
s(I1
I6
I4
I9
tp660
F0.5
s(I5
I8
I7
tp661
F0.5
s(I1
I3
I4
I8
I5
I6
I7
I9
tp662
F0.9995
s(I2
I8
I9
I1
I4
tp663
F-1.0
s(I2
I5
I6
I9
I1
I4
I7
tp664
F1.0
s(I1
I3
I7
I8
I2
I4
I5
tp665
F1.0
s(I1
I2
I4
I5
I7
I8
tp666
F0.95
s(I1
I4
I5
I8
tp667
F0.9815
s(I1
I6
I7
I8
tp668
F0.365
s(I1
I4
I5
I8
I9
tp669
F-1.0
s(I1
I2
I3
I9
I5
I6
I7
tp670
F1.0
s(I1
I6
I7
I2
I8
tp671
F-1.0
s(I1
I5
I6
I9
I2
I3
I8
tp672
F1.0
s(I1
I6
I7
I9
I2
I4
I8
tp673
F-1.0
s(I4
I5
I8
I2
I9
tp674
F0.5
s(I2
I4
I7
I8
I3
I5
I9
tp675
F-1.0
s(I1
I4
I6
I8
I5
I7
I9
tp676
F-1.0
s(I1
I7
I8
I9
I3
I4
I5
tp677
F1.0
s(I1
I2
I7
I6
I8
tp678
F0.5
s(I1
I2
I6
I9
I4
I5
I7
I8
tp679
F0.995
s(I5
I7
I8
I1
I3
tp680
F-1.0
s(I5
I7
I3
tp681
F0.5
s(I2
I7
I9
I1
I3
tp682
F1.0
s(I2
I3
I6
I4
I8
tp683
F0.5
s(I5
I6
I8
I9
I1
I3
I4
tp684
F-1.0
s(I1
I2
I6
I3
I5
tp685
F-1.0
s(I1
I4
I2
I5
tp686
F0.95
s(I1
I3
I6
I8
I2
I7
I9
tp687
F0.5
s(I2
I6
I7
I8
I3
I5
I9
tp688
F-1.0
s(I1
I3
I4
I7
I5
I6
I8
tp689
F1.0
s(I1
I2
I5
I7
I8
I3
I4
I6
I9
tp690
F1.0
s(I1
I6
I7
I3
I9
tp691
F1.0
s(I2
I6
I7
I9
I1
I3
I5
I8
tp692
F0.5
s(I5
I9
I4
tp693
F0.5
s(I1
I2
I3
I6
I5
I7
I9
tp694
F1.0
s(I2
I4
I6
I9
I1
I5
I8
tp695
F0.5
s(I2
I6
I7
I9
I1
I3
I8
tp696
F0.5
s(I2
I5
I6
I1
I4
tp697
F-1.0
s(I1
I2
I8
I4
I5
I6
tp698
F0.95
s(I3
I6
I8
I1
I5
tp699
F-1.0
s(I1
I7
I5
I8
tp700
F0.95
s(I1
I2
I5
I7
I3
I4
I6
tp701
F1.0
s(I4
I7
I8
I2
I5
tp702
F0.5
s(I6
I1
tp703
F0.5
s(I1
I7
I8
I2
I6
tp704
F0.5
s(I1
I4
I8
I3
I6
I7
tp705
F-0.8500000000000001
s(I1
I2
I3
I8
I5
I6
I9
tp706
F1.0
s(I1
I2
I8
I9
I4
I6
I7
tp707
F-1.0
s(I1
I5
I7
I2
I8
tp708
F1.0
s(I2
I3
I5
I9
I1
I7
I8
tp709
F-1.0
s(I5
I6
I3
I9
tp710
F0.95
s(I1
I2
I5
I4
I7
I8
tp711
F0.815
s(I1
I7
I9
I3
I5
tp712
F0.5
s(I1
I8
I6
I7
tp713
F0.5
s(I6
I7
I8
I9
I2
I3
I5
tp714
F1.0
s(I1
I4
I7
I8
tp715
F0.5
s(I1
I5
I8
I4
I9
tp716
F0.5
s(I2
I4
I5
I6
I7
tp717
F0.5
s(I6
I8
I9
I1
I3
I4
tp718
F-0.8500000000000001
s(I1
I2
I4
I6
I3
I7
I8
I9
tp719
F0.95
s(I1
I2
I5
I7
tp720
F0.9981981981982
s(I2
I6
I8
I1
I4
tp721
F-1.0
s(I1
I6
I8
I2
I7
tp722
F0.5
s(I3
I7
I5
I6
tp723
F0.5
s(I1
I5
I3
I4
tp724
F0.95
s(I1
I2
I7
I9
I3
I5
I6
I8
tp725
F0.9999995
s(I1
I2
I4
I6
I5
I8
I9
tp726
F-1.0
s(I2
I5
I6
I7
I1
I3
I8
tp727
F0.5
s(I1
I5
I7
I4
I8
tp728
F0.5
s(I1
I2
I6
I5
I8
tp729
F0.5
s(I1
I2
I9
I4
I8
tp730
F0.5
s(I2
I7
I3
I9
tp731
F-0.8500000000000001
s(I2
I3
I5
I7
I4
I6
I9
tp732
F1.0
s(I5
I8
I2
I9
tp733
F0.5
s(I9
I6
tp734
F0.5
s(I1
I4
I5
I8
I2
I3
I9
tp735
F-1.0
s(I1
I4
I6
I3
I8
tp736
F0.5
s(I1
I3
I7
I2
I4
tp737
F0.5
s(I2
I5
I9
I3
I8
tp738
F0.5
s(I1
I4
I6
I8
I3
I5
I7
I9
tp739
F0.95
s(I5
I7
I8
I2
I9
tp740
F0.5
s(I1
I2
I4
I9
I3
I6
I7
I8
tp741
F0.95
s(I1
I3
I4
I8
I6
I7
I9
tp742
F0.5
s(I1
I8
I7
I9
tp743
F0.9995
s(I1
I2
I8
I5
I7
tp744
F-1.0
s(I3
I4
tp745
F0.5
s(I1
I2
I3
I7
I4
I5
I6
tp746
F1.0
s(I1
I2
I6
I4
I9
tp747
F0.5
s(I1
I5
I6
I7
I3
I8
I9
tp748
F0.5
s(I1
I3
I4
I8
I2
I7
I9
tp749
F0.5
s(I1
I2
I3
I7
I4
I8
I9
tp750
F1.0
s(I1
I2
I9
I4
I5
I7
tp751
F-0.8000005000000001
s(I2
I3
I7
tp752
F0.5
s(I1
I5
I6
I9
tp753
F0.364865
s(I1
I2
I6
I8
I3
I5
I9
tp754
F-1.0
s(I2
I7
I9
I1
I8
tp755
F0.5
s(I7
I8
I3
tp756
F0.5
s(I1
I2
I6
I9
I5
I7
I8
tp757
F1.0
s(I1
I4
I5
I3
I6
I9
tp758
F0.95
s(I1
I3
I8
I2
I6
tp759
F0.5
s(I2
I3
I5
I6
I1
I4
I7
tp760
F1.0
s(I1
I6
I8
I9
I2
I4
I5
I7
tp761
F0.9995
s(I1
I2
I7
I5
I8
I9
tp762
F0.95495
s(I1
I2
I7
I5
I6
I8
tp763
F0.95
s(I1
I2
I3
I6
I4
I7
I9
tp764
F1.0
s(I1
I4
I5
I6
I2
I7
I9
tp765
F1.0
s(I1
I3
I6
I4
I8
tp766
F0.5
s(I5
I9
I3
I8
tp767
F0.5
s(I1
I2
I6
I8
I3
I4
I7
I9
tp768
F0.99999999995
s(I1
I4
I6
I7
I9
tp769
F-1.0
s(I7
I9
tp770
F0.5
s(I3
I6
I1
tp771
F0.5
s(I1
I2
I5
I9
I4
I6
I8
tp772
F1.0
s(I1
I3
I6
I2
I5
tp773
F-1.0
s(I1
I7
I9
I3
I8
tp774
F0.5
s(I4
I5
I6
I2
I8
tp775
F1.0
s(I1
I3
I4
I9
I5
I6
I7
tp776
F1.0
s(I1
I7
I8
tp777
F0.5
s(I1
I3
I8
I5
I6
tp778
F-1.0
s(I1
I2
I9
I3
I5
I7
tp779
F0.95
s(I1
I2
I6
I9
I4
I5
I7
tp780
F1.0
s(I1
I2
I7
I8
I3
I5
I9
tp781
F-1.0
s(I7
I9
I4
tp782
F0.5
s(I1
I2
I5
I3
I6
I8
tp783
F0.995
s(I2
I3
I8
I6
I7
I9
tp784
F0.95
s(I2
I5
I6
I8
I3
I4
I9
tp785
F1.0
s(I1
I4
I2
tp786
F0.5
s(I2
I3
I4
I9
I1
I5
I8
tp787
F0.5
s(I1
I4
I5
I8
I3
I7
I9
tp788
F1.0
s(I1
I2
I4
I8
I6
I7
I9
tp789
F-1.0
s(I3
I5
I6
I9
tp790
F0.95
s(I8
I9
I1
I3
tp791
F0.95
s(I7
I6
tp792
F0.5
s(I1
I3
I4
I5
I2
I6
I8
I9
tp793
F0.95
s(I1
I4
I9
I3
I7
tp794
F-1.0
s(I1
I3
I4
I5
I6
tp795
F0.5
s(I1
I6
I8
I7
I9
tp796
F1.0
s(I3
I6
I7
I2
I8
tp797
F-1.0
s(I2
I6
I8
I9
I1
I3
I4
tp798
F1.0
s(I1
I8
I9
I5
I7
tp799
F-1.0
s(I1
I3
I6
I7
I4
I5
I9
tp800
F0.5
s(I3
I5
I6
I2
I4
tp801
F0.5
s(I1
I5
I8
I2
I7
tp802
F0.5
s(I4
I5
I8
I1
I7
tp803
F0.5
s(I2
I9
I1
I4
tp804
F0.95
s(I1
I5
I8
I2
I6
I9
tp805
F-0.8500000000000001
s(I3
I7
I2
tp806
F0.5
s(I1
I2
I7
I5
I9
tp807
F0.5
s(I1
I2
I3
I9
I5
I7
I8
tp808
F1.0
s(I1
I3
I4
I8
I5
I6
I9
tp809
F1.0
s(I2
I5
I1
tp810
F0.5
s(I1
I4
I8
I5
I6
I7
tp811
F0.365
s(I3
I5
I7
I1
I4
tp812
F1.0
s(I1
I6
I7
I9
I4
I5
I8
tp813
F1.0
s(I1
I2
I4
I5
I6
I7
tp814
F0.995
s(I1
I4
I8
I2
I5
I9
tp815
F0.95
s(I1
I2
I6
I9
I3
I4
I5
I8
tp816
F0.995
s(I1
I3
I2
I8
tp817
F-0.8000000018049999
s(I5
I6
I8
I3
I9
tp818
F0.5
s(I1
I5
I6
I2
I9
tp819
F0.5
s(I1
I4
I6
I8
I2
I3
I5
I9
tp820
F0.995
s(I4
I7
I8
I3
I6
tp821
F-1.0
s(I1
I8
I2
I7
tp822
F0.5
s(I1
I2
I8
I9
I3
I6
I7
tp823
F-1.0
s(I1
I3
I4
I6
I7
I2
I5
I8
I9
tp824
F1.0
s(I4
I9
I6
tp825
F0.5
s(I4
I6
I7
tp826
F0.5
s(I5
I6
I8
I4
I9
tp827
F0.5
s(I2
I9
I4
tp828
F0.5
s(I1
I3
I6
I5
I7
tp829
F1.0
s(I1
I2
I8
I3
I9
tp830
F-1.0
s(I2
I3
I6
I1
I7
tp831
F-1.0
s(I1
I2
I5
I8
I3
I6
I7
tp832
F1.0
s(I6
I7
I3
tp833
F0.5
s(I1
I2
I3
I4
I7
I8
I9
tp834
F1.0
s(I1
I2
I3
I5
I8
tp835
F1.0
s(I1
I3
I8
I2
I5
I9
tp836
F0.9995
s(I4
I6
I9
I5
I7
tp837
F-1.0
s(I4
I1
tp838
F0.5
s(I1
I3
I5
I7
I2
I6
I8
tp839
F1.0
s(I1
I2
I7
I4
I5
I8
tp840
F-0.8500000000000001
s(I2
I4
I8
I9
I3
I6
I7
tp841
F-1.0
s(I1
I2
I6
I7
tp842
F0.995499955
s(I1
I3
I5
I8
I2
I7
I9
tp843
F0.5
s(I2
I4
I5
I9
I3
I6
I7
tp844
F0.5
s(I1
I4
I9
I2
I5
tp845
F-1.0
s(I1
I2
I6
I3
I5
I9
tp846
F-0.981805
s(I4
I5
I6
tp847
F0.5
s(I1
I4
I5
I9
I3
I6
I7
tp848
F1.0
s(I1
I6
I7
I8
I2
I4
I5
tp849
F1.0
s(I1
I5
I9
I4
I8
tp850
F1.0
s(I3
I5
I9
I2
I4
tp851
F0.5
s(I4
I8
I1
tp852
F0.5
s(I1
I9
I3
I6
tp853
F0.9995
s(I1
I3
I5
I8
I2
I4
I9
tp854
F0.5
s(I1
I5
I7
I8
I2
I6
I9
tp855
F-1.0
s(I2
I8
I7
tp856
F0.5
s(I1
I4
I7
I2
I9
tp857
F1.0
s(I1
I4
I5
I3
I9
tp858
F-1.0
s(I6
I8
I9
I1
I2
tp859
F-1.0
s(I1
I6
I7
I3
I4
I8
tp860
F0.5
s(I1
I2
I3
I4
I5
I6
I7
tp861
F1.0
s(I2
I6
I8
I3
I9
tp862
F0.5
s(I1
I4
I5
I6
I8
I2
I3
I7
I9
tp863
F1.0
s(I2
I3
I4
I1
I6
tp864
F0.5
s(I1
I3
tp865
F0.5
s(I1
I6
I8
I9
tp866
F0.4865
s(I1
I4
I5
I8
I6
I7
I9
tp867
F1.0
s(I4
I8
tp868
F0.5
s(I2
I7
I3
tp869
F0.5
s(I1
I4
I5
I8
I2
I7
I9
tp870
F0.5
s(I1
I2
I8
I9
I3
I4
I6
tp871
F1.0
s(I1
I2
I8
I4
I9
tp872
F0.5
s(I2
I3
I7
I9
I1
I5
I8
tp873
F0.5
s(I2
I3
I4
I8
I1
I6
I7
tp874
F0.5
s(I5
I6
I1
I8
tp875
F0.5
s(I1
I7
I2
I9
tp876
F0.9999995
s(I1
I3
I7
I8
I2
I4
I6
I9
tp877
F0.995
s(I1
I4
I7
I3
I8
tp878
F1.0
s(I2
I7
I9
I1
I3
I8
tp879
F0.5
s(I1
I8
I9
I2
I4
I5
tp880
F0.995
s(I1
I2
I3
I6
I8
I4
I5
I7
I9
tp881
F1.0
s(I1
I2
I7
I8
I4
I5
I6
I9
tp882
F0.95
s(I1
I2
I3
I4
I5
I7
I8
tp883
F1.0
s(I1
I2
I5
I8
I3
I4
I6
tp884
F1.0
s(I1
I4
I5
I6
I7
tp885
F0.5
s(I4
I7
I5
I6
tp886
F0.95
s(I1
I3
I5
I2
I7
I8
tp887
F0.98195
s(I3
I5
I8
I2
I9
tp888
F0.5
s(I1
I5
I7
I2
I3
tp889
F0.5
s(I1
I2
I4
I6
I5
I7
I8
tp890
F-1.0
s(I1
I4
tp891
F0.5
s(I1
I3
I5
I8
I4
I6
I9
tp892
F0.5
s(I1
I2
I4
I3
I7
tp893
F-1.0
s(I2
I5
I7
I9
I1
I3
I4
I8
tp894
F0.5
s(I2
I4
I6
I9
I1
I3
I5
tp895
F-1.0
s(I1
I2
I4
I5
I3
I7
I8
tp896
F-1.0
s(I2
I5
I9
I1
I3
tp897
F0.5
s(I1
I2
I4
I5
I9
tp898
F0.5
s(I1
I2
I4
I8
I3
I5
I7
I9
tp899
F0.95
s(I1
I5
I6
I8
I3
I4
I9
tp900
F1.0
s(I1
I3
I4
tp901
F0.5
s(I1
I7
I5
I6
tp902
F0.995
s(I1
I3
I5
I8
I2
I4
I6
I7
tp903
F0.95
s(I2
I7
I8
I3
I4
I9
tp904
F0.995
s(I1
I7
I9
I2
I4
tp905
F0.5
s(I1
I4
I8
I6
I9
tp906
F-1.0
s(I4
I6
I8
I3
I5
tp907
F-1.0
s(I5
I7
I8
tp908
F0.5
s(I3
I8
I9
I1
I5
tp909
F0.5
s(I3
I5
I7
I4
I8
tp910
F1.0
s(I1
I3
I6
I4
I7
I8
tp911
F0.95
s(I1
I7
I9
I5
I8
tp912
F-1.0
s(I1
I2
I4
I7
I6
I8
I9
tp913
F1.0
s(I1
I2
I4
I8
I3
I5
I6
I7
tp914
F0.995
s(I1
I2
I9
I3
I6
I7
tp915
F0.9995
s(I1
I2
I6
I8
I3
I4
I9
tp916
F1.0
s(I2
I6
I4
I8
tp917
F0.5
s(I5
I6
I7
I1
I3
tp918
F-1.0
s(I1
I3
I4
I5
I2
I6
I9
tp919
F0.5
s(I1
I3
I4
I9
I5
I7
I8
tp920
F1.0
s(I1
I3
I6
I8
I5
I7
I9
tp921
F1.0
s(I1
I2
I4
I3
I5
I7
tp922
F0.95
s(I5
I8
I3
I9
tp923
F0.5
s(I4
I5
I9
I1
I6
tp924
F0.5
s(I1
I5
I6
I2
I3
I9
tp925
F0.5
s(I1
I9
I4
I8
tp926
F0.995
s(I4
I6
I8
I9
I1
I3
I7
tp927
F-1.0
s(I2
I3
I5
I6
I7
tp928
F0.5
s(I3
I6
I9
I4
I7
tp929
F1.0
s(I1
I4
I9
I2
I5
I6
tp930
F-0.8500000000000001
s(I1
I4
I5
I2
I3
I6
tp931
F0.95
s(I4
I9
I3
I6
tp932
F0.95
s(I1
I3
I4
I6
I9
I2
I5
I7
I8
tp933
F1.0
s(I1
I3
I5
I8
I2
I4
I7
tp934
F0.5
s(I2
I6
I8
I5
I9
tp935
F-1.0
s(I1
I4
I6
I3
I7
tp936
F-1.0
s(I2
I3
I9
I1
I5
tp937
F0.5
s(I1
I2
I8
I4
I6
tp938
F-1.0
s(I5
I2
tp939
F0.5
s(I1
I2
I7
I4
I5
I9
tp940
F0.95
s(I1
I2
I7
I8
I4
I6
I9
tp941
F-1.0
s(I6
I8
I9
tp942
F0.5
s(I2
I4
I5
I7
I9
tp943
F-1.0
s(I2
I4
I8
I9
I1
I3
I7
tp944
F-1.0
s(I1
I7
I8
I2
I5
tp945
F0.5
s(I1
I5
I6
I4
I9
tp946
F0.5
s(I1
I5
I7
I2
I8
I9
tp947
F0.95
s(I1
I2
I4
I8
I3
I7
I9
tp948
F-1.0
s(I1
I6
I8
I3
I9
tp949
F0.5
s(I1
I7
I9
I4
I5
I8
tp950
F-0.8005000000000001
s(I8
I9
I4
tp951
F0.5
s(I1
I2
I6
I8
tp952
F0.9954549995499955
s(I1
I2
I3
I8
I4
I6
I7
tp953
F1.0
s(I1
I6
I9
I3
I7
tp954
F-1.0
s(I1
I4
I8
I9
I2
I3
I5
I7
tp955
F0.95
s(I1
I5
I2
I6
tp956
F0.9995
s(I1
I3
I6
I7
I4
I8
I9
tp957
F0.5
s(I1
I2
I3
I4
I7
tp958
F1.0
s(I1
I3
I4
I8
I5
I6
I7
tp959
F0.5
s(I1
I2
I7
I3
I4
tp960
F0.5
s(I2
I3
I6
I1
I9
tp961
F-1.0
s(I2
I6
tp962
F0.5
s(I1
I2
I4
I6
I3
I5
I8
I9
tp963
F0.9995
s(I1
I3
I4
I5
I6
I7
I8
I9
tp964
F0.95
s(I4
I5
I9
I2
I3
tp965
F-1.0
s(I1
I2
I9
I3
I4
I6
tp966
F0.99995
s(I1
I2
I7
I4
I8
tp967
F0.5
s(I1
I7
I8
I9
I3
I5
I6
tp968
F1.0
s(I1
I5
I6
I7
tp969
F0.95
s(I1
I2
I4
tp970
F0.5
s(I4
I9
I5
I7
tp971
F0.95
s(I1
I4
I8
I9
I2
I5
I6
I7
tp972
F0.9995
s(I3
I9
I5
tp973
F0.5
s(I2
I5
I1
I4
tp974
F0.95
s(I1
I2
I7
I9
I3
I5
I8
tp975
F0.5
s(I1
I3
I6
I2
I4
I8
tp976
F0.95
s(I3
I4
I8
I1
I9
tp977
F-1.0
s(I4
I5
I8
I3
I6
tp978
F-1.0
s(I1
I2
I9
I4
I7
tp979
F0.5
s(I2
I3
I7
I6
I9
tp980
F1.0
s(I2
I3
I4
I8
I1
I5
I9
tp981
F1.0
s(I7
I8
I6
tp982
F0.5
s(I1
I2
I8
I7
I9
tp983
F1.0
s(I1
I2
I5
I6
I3
I4
I7
I8
tp984
F0.99995
s(I2
I4
I7
I3
I9
tp985
F-1.0
s(I3
I5
I8
I1
I2
I9
tp986
F0.95
s(I5
I8
I3
tp987
F0.5
s(I2
I1
tp988
F0.5
s(I3
I6
I7
I1
I9
tp989
F-1.0
s(I1
I4
I6
I8
I3
I7
I9
tp990
F1.0
s(I1
I2
I5
I9
I3
I4
I6
tp991
F1.0
s(I1
I3
I8
I9
I2
I4
I6
I7
tp992
F0.99995
s(I3
I4
I5
I6
I7
tp993
F0.5
s(I2
I4
I9
I1
I7
tp994
F0.5
s(I1
I2
I5
I3
I4
I9
tp995
F0.9995
s(I4
I7
I8
I1
I5
tp996
F-1.0
s(I1
I2
I6
I8
I3
I4
I7
tp997
F-1.0
s(I2
I4
I7
I5
I6
tp998
F0.5
s(I1
I4
I5
I3
I7
I9
tp999
F0.95
s(I5
I7
I9
I1
I3
tp1000
F-1.0
s(I2
I7
I8
I1
I3
tp1001
F0.5
s(I8
I6
tp1002
F0.5
s(I1
I4
I8
I3
I6
I9
tp1003
F0.95
s(I3
I6
I8
I4
I5
tp1004
F0.5
s(I2
I6
I7
I8
I1
I4
I5
I9
tp1005
F0.95
s(I3
I6
I4
tp1006
F0.5
s(I1
I2
I5
I8
I4
I7
I9
tp1007
F1.0
s(I1
I2
I4
I8
tp1008
F0.9995495499504949
s(I1
I2
I5
I3
I8
I9
tp1009
F-0.8500000000000001
s(I4
I6
I7
I2
I3
tp1010
F-1.0
s(I1
I3
I5
I7
I8
tp1011
F-1.0
s(I1
I3
I8
I2
I5
tp1012
F1.0
s(I2
I3
I7
I1
I4
I9
tp1013
F0.95
s(I4
I6
I1
I9
tp1014
F0.95
s(I1
I4
I7
I6
I9
tp1015
F1.0
s(I7
I9
I1
tp1016
F0.5
s(I1
I3
I4
I5
I2
I7
I8
tp1017
F-1.0
s(I1
I6
I8
I2
I5
I9
tp1018
F0.5
s(I3
I7
I9
I2
I8
tp1019
F-1.0
s(I1
I2
I7
I3
I6
I8
tp1020
F0.95
s(I1
I3
I5
I6
I7
I9
tp1021
F0.995
s(I1
I4
I9
tp1022
F0.5
s(I2
I6
I8
I1
I4
I5
tp1023
F-0.8500000000000001
s(I4
I7
I3
tp1024
F0.5
s(I1
I2
I5
I3
I9
tp1025
F-1.0
s(I1
I2
I8
I4
I7
I9
tp1026
F0.954995
s(I1
I8
I9
I2
I4
tp1027
F0.5
s(I1
I8
I9
I3
I4
I6
tp1028
F0.995
s(I1
I7
I9
I2
I3
I6
tp1029
F0.995
s(I1
I4
I6
I3
I7
I8
tp1030
F0.95
s(I3
I4
I6
I2
I8
tp1031
F-1.0
s(I2
I7
I8
I9
I1
I4
I5
tp1032
F1.0
s(I1
I5
I6
I2
I7
I9
tp1033
F0.5
s(I1
I7
I9
I4
I8
tp1034
F0.5
s(I2
I7
I9
I3
I8
tp1035
F0.5
s(I1
I4
I5
I7
I2
I8
I9
tp1036
F1.0
s(I5
I8
I9
I2
I4
tp1037
F0.5
s(I1
I2
I5
I9
I3
I6
I7
tp1038
F1.0
s(I1
I3
I5
I2
I7
tp1039
F0.5
s(I1
I2
I8
I9
I4
I5
I7
tp1040
F-1.0
s(I1
I7
I8
I3
I5
I9
tp1041
F0.95
s(I1
I4
I5
I2
I9
tp1042
F0.5
s(I2
I4
I5
I6
I1
I3
I8
tp1043
F1.0
s(I1
I3
I9
I6
I7
tp1044
F0.5
s(I2
I3
I6
I9
I1
I5
I7
tp1045
F1.0
s(I1
I6
I9
I2
I4
I8
tp1046
F0.95
s(I1
I6
I9
I7
I8
tp1047
F0.5
s(I4
I7
I9
I2
I6
tp1048
F0.5
s(I1
I6
I7
I8
I2
I3
I4
I5
tp1049
F0.995
s(I2
I3
I7
I8
I9
tp1050
F0.5
s(I3
I7
I9
I1
I2
tp1051
F0.5
s(I2
I8
I6
I9
tp1052
F0.95
s(I3
I4
I6
tp1053
F0.5
s(I1
I2
I9
I3
I7
I8
tp1054
F0.99818181995
s(I1
I5
I7
I9
I2
I3
I8
tp1055
F1.0
s(I1
I2
I5
I8
I3
I6
I9
tp1056
F1.0
s(I2
I8
I9
I1
I4
I5
tp1057
F0.95
s(I1
I3
I5
I6
I7
tp1058
F0.5
s(I4
I7
I8
I3
I5
tp1059
F1.0
s(I5
I6
I9
I3
I8
tp1060
F0.5
s(I1
I4
I6
I9
I2
I5
I7
I8
tp1061
F0.95
s(I1
I2
I6
I8
I3
I4
I5
tp1062
F-1.0
s(I1
I2
I5
I6
I4
I7
I8
tp1063
F-1.0
s(I1
I3
I6
I7
I9
tp1064
F-1.0
s(I4
I5
I6
I1
I2
tp1065
F1.0
s(I1
I2
I3
I6
I9
I4
I5
I7
I8
tp1066
F1.0
s(I1
I3
I5
I7
I4
I6
I8
tp1067
F1.0
s(I1
I2
I7
I8
I3
I4
I6
tp1068
F-1.0
s(I1
I5
I6
I8
I2
I3
I4
I9
tp1069
F0.995
s(I5
I6
I9
tp1070
F0.5
s(I1
I9
I2
tp1071
F0.5
s(I4
I5
I1
tp1072
F0.5
s(I1
I5
I9
I4
I6
tp1073
F1.0
s(I1
I3
I9
I2
I7
tp1074
F0.5
s(I4
I7
I9
I5
I6
tp1075
F0.5
s(I1
I7
I2
I3
tp1076
F0.9954995
s(I9
I3
tp1077
F0.5
s(I1
I2
I6
I3
I4
I9
tp1078
F0.99999995
s(I3
I6
I9
I2
I4
tp1079
F1.0
s(I3
I5
I1
tp1080
F0.5
s(I1
I7
I6
I8
tp1081
F0.5
s(I2
I8
I9
I1
I3
tp1082
F0.5
s(I1
I2
I3
I4
tp1083
F0.5
s(I1
I3
I9
I5
I8
tp1084
F-1.0
s(I3
I4
I9
I1
I5
I7
tp1085
F0.95
s(I1
I4
I7
I8
I3
I6
I9
tp1086
F1.0
s(I9
I5
tp1087
F0.5
s(I1
I6
I7
I9
I2
I3
I5
tp1088
F-1.0
s(I3
I4
I8
I6
I7
I9
tp1089
F0.5
s(I1
I6
I8
I5
I7
I9
tp1090
F0.95
s(I1
I7
I8
I9
I2
I5
I6
tp1091
F1.0
s(I1
I4
I7
I5
I8
tp1092
F1.0
s(I2
I3
I9
I1
I4
tp1093
F-1.0
s(I3
I8
I9
I4
I7
tp1094
F-1.0
s(I7
I8
I9
I1
I5
tp1095
F1.0
s(I1
I2
I8
I4
I5
tp1096
F-1.0
s(I2
I3
I6
I4
I9
tp1097
F0.5
s(I2
I3
I4
I6
I5
I8
I9
tp1098
F1.0
s(I1
I5
I6
I7
I3
I4
I8
tp1099
F0.5
s(I3
I7
tp1100
F0.5
s(I1
I4
I5
I3
I6
tp1101
F-1.0
s(I2
I4
I6
I5
I9
tp1102
F-1.0
s(I7
I9
I8
tp1103
F0.5
s(I1
I3
I8
I9
I5
I6
I7
tp1104
F-1.0
s(I5
I7
I8
I1
I4
tp1105
F0.5
s(I1
I2
I5
I8
I9
I3
I4
I6
I7
tp1106
F1.0
s(I1
I2
I8
I6
I7
tp1107
F0.5
s(I1
I9
I5
I6
tp1108
F0.5
s(I3
I5
I6
I9
I1
I4
I8
tp1109
F1.0
s(I2
I9
I1
tp1110
F0.5
s(I1
I2
I5
I6
I7
I8
tp1111
F0.95
s(I1
I2
I4
I6
I3
I7
I8
tp1112
F-1.0
s(I1
I5
I7
I8
I2
I4
I6
tp1113
F0.5
s(I1
I3
I7
I8
I9
tp1114
F0.5
s(I1
I7
I9
I4
I6
tp1115
F-1.0
s(I1
I6
I2
I7
tp1116
F0.5
s(I1
I5
I9
I2
I6
tp1117
F1.0
s(I1
I7
I9
I6
I8
tp1118
F0.5
s(I2
I6
I1
tp1119
F0.5
s(I2
I6
I7
I3
I9
tp1120
F1.0
s(I4
I7
I2
I6
tp1121
F0.95
s(I1
I6
I9
I3
I4
I8
tp1122
F0.95
s(I1
I3
I7
I8
I2
I4
I9
tp1123
F0.5
s(I1
I4
I9
I6
I8
tp1124
F0.5
s(I1
I3
I2
I5
tp1125
F0.999819995
s(I2
I3
I7
I1
I8
tp1126
F0.5
s(I1
I4
I8
I5
I6
tp1127
F0.5
s(I1
I2
I5
I4
I9
tp1128
F0.5
s(I1
I5
I8
I6
I7
tp1129
F0.5
s(I1
I2
I6
I7
I9
I3
I4
I5
I8
tp1130
F1.0
s(I4
I5
I7
I2
I3
tp1131
F-1.0
s(I1
I2
I5
I6
I7
I8
I9
tp1132
F1.0
s(I1
I7
I4
I8
tp1133
F0.5
s(I7
I8
tp1134
F0.5
s(I1
I3
I4
I8
I2
I6
I7
tp1135
F0.5
s(I1
I4
I8
I9
I2
I5
I6
tp1136
F1.0
s(I6
I9
I1
tp1137
F0.5
s(I1
I7
I8
I3
I4
tp1138
F0.5
s(I2
I7
I8
tp1139
F0.5
s(I4
I9
I2
tp1140
F0.5
s(I1
I2
I5
I6
I3
I7
I8
tp1141
F-1.0
s(I2
I6
I8
I1
I9
tp1142
F-1.0
s(I2
I4
I8
I9
I3
I5
I6
tp1143
F-1.0
s(I1
I3
I7
I2
I4
I5
tp1144
F0.95
s(I1
I2
I6
I9
I3
I4
I8
tp1145
F0.5
s(I2
I3
I8
I9
I1
I4
I5
tp1146
F-1.0
s(I1
I5
I8
I3
I6
I7
tp1147
F0.95
s(I2
I4
I8
I5
I6
tp1148
F0.5
s(I1
I2
I7
I9
I3
I4
I5
I6
tp1149
F0.999995
s(I1
I3
I5
I8
I9
tp1150
F-1.0
s(I1
I2
I3
I5
I6
tp1151
F1.0
s(I1
I2
I6
I8
I4
I7
I9
tp1152
F0.5
s(I1
I7
I3
I6
tp1153
F0.9995
s(I2
I5
I9
I1
I6
tp1154
F0.5
s(I1
I2
I4
I8
I3
I5
I6
I9
tp1155
F0.999995
s(I1
I2
I4
I7
I3
I6
I8
tp1156
F1.0
s(I7
I1
tp1157
F0.5
s(I2
I4
I9
I3
I6
tp1158
F0.5
s(I2
I4
I6
tp1159
F0.5
s(I1
I5
I7
I6
I8
tp1160
F0.5
s(I5
I6
I7
I1
I4
tp1161
F0.5
s(I1
I7
I8
I5
I9
tp1162
F0.5
s(I1
I2
I5
I6
I3
I4
I9
tp1163
F1.0
s(I1
I2
I4
I6
I3
I5
I7
tp1164
F1.0
s(I1
I3
I4
I7
I8
I2
I5
I6
I9
tp1165
F1.0
s(I1
I8
I9
I2
I3
tp1166
F0.5
s(I1
I2
I6
I9
I3
I5
I7
tp1167
F1.0
s(I2
I4
I6
I3
I9
tp1168
F0.5
s(I1
I8
I9
I4
I6
I7
tp1169
F-0.8500000000000001
s(I1
I9
I3
I5
tp1170
F0.5
s(I6
I8
I2
tp1171
F0.5
s(I1
I2
I5
I9
I3
I7
I8
tp1172
F1.0
s(I1
I2
I7
I9
I3
I6
I8
tp1173
F0.5
s(I4
I8
I5
tp1174
F0.5
s(I3
I7
I8
I1
I9
tp1175
F-1.0
s(I1
I2
I9
I5
I6
tp1176
F-1.0
s(I2
I6
I7
I3
I5
tp1177
F1.0
s(I1
I2
I4
I8
I5
I7
I9
tp1178
F-1.0
s(I1
I2
I4
I7
I9
tp1179
F-1.0
s(I2
I4
I7
I9
I1
I3
I5
I8
tp1180
F0.5
s(I2
I6
I1
I8
tp1181
F0.5
s(I2
I8
I3
tp1182
F0.5
s(I1
I2
I5
I7
I3
I4
I6
I9
tp1183
F0.995
s(I6
I8
I9
I4
I5
tp1184
F0.5
s(I1
I5
I7
I3
I4
tp1185
F0.5
s(I1
I2
I3
I8
I4
I6
I9
tp1186
F1.0
s(I4
I5
I8
I6
I9
tp1187
F-1.0
s(I2
I4
I6
I7
I3
I5
I9
tp1188
F-1.0
s(I3
I5
I8
tp1189
F0.5
s(I1
I2
I4
I6
I9
I3
I5
I7
I8
tp1190
F1.0
s(I1
I5
I6
I3
I8
tp1191
F0.5
s(I2
I3
I5
I9
I1
I4
I8
tp1192
F-1.0
s(I1
I2
I4
I6
I8
tp1193
F0.5
s(I1
I2
I6
I3
I8
I9
tp1194
F0.9995
s(I1
I2
I3
I8
I4
I5
I9
tp1195
F1.0
s(I1
I3
I6
I4
I7
tp1196
F0.5
s(I1
I4
I6
I8
I2
I3
I9
tp1197
F0.5
s(I1
I4
I6
I2
I3
I9
tp1198
F0.5495
s(I1
I6
I8
I3
I4
tp1199
F0.5
s(I1
I4
I5
I6
I9
tp1200
F-1.0
s(I1
I2
I4
I5
I6
I8
I9
tp1201
F-1.0
s(I1
I3
I4
I6
I2
I5
I7
I9
tp1202
F0.5
s(I1
I2
I6
I3
I7
tp1203
F-1.0
s(I1
I9
tp1204
F0.5
s(I1
I3
I6
I2
I8
tp1205
F-1.0
s(I4
I2
tp1206
F0.5
s(I1
I7
I8
I9
I2
I3
I5
tp1207
F1.0
s(I3
I6
I9
I1
I5
tp1208
F1.0
s(I1
I2
I7
I3
I9
tp1209
F-1.0
s(I2
I4
I9
I1
I7
I8
tp1210
F0.95
s(I2
I5
I7
I9
I1
I4
I8
tp1211
F1.0
s(I1
I4
I5
I7
I8
I2
I3
I6
I9
tp1212
F1.0
s(I2
I3
I5
I7
I1
I4
I8
tp1213
F1.0
s(I2
I4
I6
I9
I1
I3
I5
I8
tp1214
F0.5
s(I4
I8
I5
I6
tp1215
F0.5
s(I3
I6
I8
I1
I4
I5
tp1216
F0.95
s(I1
I3
I6
I9
I2
I5
I7
tp1217
F1.0
s(I1
I2
I6
I8
I3
I4
I5
I7
tp1218
F0.995
s(I1
I3
I6
I8
I9
I2
I4
I5
I7
tp1219
F1.0
s(I2
I3
I7
I8
I4
I6
I9
tp1220
F-1.0
s(I1
I2
I4
I5
I6
I7
I8
tp1221
F-1.0
s(I1
I4
I6
I7
I8
I2
I3
I5
I9
tp1222
F1.0
s(I2
I6
I8
tp1223
F0.5
s(I4
I5
I7
I8
I2
I6
I9
tp1224
F-1.0
s(I2
I7
I6
I9
tp1225
F0.95
s(I3
I6
I8
I9
I1
I4
I5
tp1226
F1.0
s(I1
I7
I9
I5
I6
tp1227
F-1.0
s(I2
I5
I7
I9
tp1228
F0.95
s(I3
I5
I6
I1
I4
I8
tp1229
F0.95
s(I1
I2
tp1230
F0.5
s(I1
I5
I8
I9
I2
I3
I7
tp1231
F1.0
s(I4
I9
tp1232
F0.5
s(I1
I6
I2
I8
tp1233
F0.99995
s(I4
I5
I8
I1
I2
tp1234
F-1.0
s(I1
I3
I5
I7
I6
I8
I9
tp1235
F1.0
s(I5
I7
I4
tp1236
F0.5
s(I1
I5
I6
I8
I9
I2
I3
I4
I7
tp1237
F1.0
s(I1
I3
I4
I9
I2
I5
I7
I8
tp1238
F0.95
s(I2
I8
I1
I3
tp1239
F0.95
s(I2
I3
I7
I8
I1
I4
I9
tp1240
F-1.0
s(I1
I8
I9
I2
I3
I4
tp1241
F0.95
s(I3
I5
I8
I6
I7
tp1242
F0.5
s(I1
I3
I6
I9
I4
I7
I8
tp1243
F1.0
s(I1
I5
I3
I9
tp1244
F0.35001499999999985
s(I1
I3
I5
I6
I8
I2
I4
I7
I9
tp1245
F0.5
s(I1
I8
I2
I3
tp1246
F0.5
s(I2
I7
I8
I1
I6
tp1247
F0.5
s(I1
I3
I4
I6
I8
tp1248
F0.5
s(I2
I6
I7
I1
I4
I9
tp1249
F-0.8500000000000001
s(I1
I4
I6
I2
I5
tp1250
F-1.0
s(I1
I3
I4
I8
I2
I5
I9
tp1251
F0.5
s(I1
I2
I5
I9
I4
I7
I8
tp1252
F1.0
s(I3
I5
I4
I8
tp1253
F0.95
s(I1
I3
I7
I9
I4
I6
I8
tp1254
F-1.0
s(I1
I2
I8
I3
I4
tp1255
F0.5
s(I1
I5
I7
I9
I4
I6
I8
tp1256
F1.0
s(I4
I5
I8
I9
I3
I6
I7
tp1257
F1.0
s(I2
I3
I4
I6
I7
I1
I5
I8
I9
tp1258
F1.0
s(I1
I3
I8
I4
I5
tp1259
F-1.0
s(I3
I5
I8
I1
I9
tp1260
F1.0
s(I1
I5
I6
I4
I7
tp1261
F0.5
s(I1
I6
I7
I8
I2
I3
I4
I9
tp1262
F0.95
s(I1
I3
I5
I6
I2
I4
I8
tp1263
F0.5
s(I1
I2
I7
I4
I5
I6
tp1264
F0.95
s(I1
I3
I7
I4
I9
tp1265
F0.5
s(I1
I4
I5
I9
I3
I7
I8
tp1266
F1.0
s(I2
I6
I3
I5
tp1267
F0.95
s(I1
I4
I5
I7
I2
I3
I9
tp1268
F1.0
s(I1
I6
I8
I4
I5
I9
tp1269
F0.5
s(I1
I3
I8
I2
I4
I6
tp1270
F0.98195
s(I2
I3
I4
I1
I5
tp1271
F-1.0
s(I1
I4
I8
I9
I3
I5
I6
tp1272
F1.0
s(I7
I8
I9
I3
I6
tp1273
F1.0
s(I3
I4
I8
I9
I5
I6
I7
tp1274
F0.5
s(I1
I4
I6
I3
I8
I9
tp1275
F-0.8500000000000001
s(I1
I2
I3
I6
I4
I5
I8
tp1276
F1.0
s(I1
I4
I9
I2
I8
tp1277
F-1.0
s(I1
I2
I3
I5
I4
I7
I9
tp1278
F1.0
s(I1
I2
I7
I4
I6
tp1279
F-1.0
s(I2
I4
I8
I9
I1
I6
I7
tp1280
F0.5
s(I1
I3
I5
I2
I4
tp1281
F0.5
s(I3
I6
I8
I1
I9
tp1282
F-1.0
s(I2
I9
I3
I8
tp1283
F0.5
s(I1
I2
I4
I5
I8
I3
I6
I7
I9
tp1284
F1.0
s(I3
I4
I5
I1
I2
tp1285
F1.0
s(I1
I4
I5
I2
I8
I9
tp1286
F0.95
s(I2
I4
I8
tp1287
F0.5
s(I1
I4
I8
I3
I7
tp1288
F-1.0
s(I1
I2
I4
I9
I5
I6
I8
tp1289
F1.0
s(I2
I3
I4
I9
I1
I7
I8
tp1290
F1.0
s(I1
I4
I5
I6
tp1291
F0.50045
s(I1
I2
I6
I7
I3
I5
I9
tp1292
F1.0
s(I3
I9
I1
tp1293
F0.5
s(I1
I2
I7
I9
tp1294
F0.81999999999802
s(I1
I5
I6
I9
I2
I4
I8
tp1295
F1.0
s(I2
I3
I6
tp1296
F0.5
s(I1
I2
I8
I9
I3
I4
I5
I6
tp1297
F0.9999999995
s(I3
I4
I9
I6
I7
tp1298
F0.5
s(I5
I6
I4
tp1299
F0.5
s(I1
I6
I7
I8
I2
I3
I9
tp1300
F0.5
s(I1
I5
I7
I4
I8
I9
tp1301
F0.5449999999999999
s(I5
I1
tp1302
F0.5
s(I7
I8
I2
tp1303
F0.5
s(I1
I2
I9
I5
I7
I8
tp1304
F0.9995
s(I1
I2
I5
I8
I6
I7
I9
tp1305
F1.0
s(I1
I9
I2
I6
tp1306
F0.5
s(I1
tp1307
F0.5
s(I1
I8
I5
I7
tp1308
F0.995
s(I2
I3
I5
I9
tp1309
F0.95
s(I1
I2
I3
I5
I6
I8
I9
tp1310
F1.0
s(I1
I6
I7
I4
I9
tp1311
F0.5
s(I1
I3
I9
I2
I8
tp1312
F-1.0
s(I2
I4
I8
I6
I9
tp1313
F-1.0
s(I1
I3
I6
I9
I2
I7
I8
tp1314
F1.0
s(I1
I9
I5
I8
tp1315
F0.5
s(I1
I3
I7
I9
I5
I6
I8
tp1316
F-1.0
s(I1
I3
I4
I5
I8
I2
I6
I7
I9
tp1317
F0.5
s(I1
I3
I5
I2
I8
I9
tp1318
F0.95
s(I2
I7
I9
tp1319
F0.5
s(I2
I3
I4
I8
I6
I7
I9
tp1320
F0.5
s(I1
I2
I6
I5
I7
I9
tp1321
F0.95
s(I2
I4
I5
I6
I8
tp1322
F0.5
s(I1
I3
I6
I7
I2
I5
I8
I9
tp1323
F0.95
s(I1
I2
I4
I5
I6
I8
tp1324
F0.99995
s(I1
I3
I4
I2
I5
tp1325
F-1.0
s(I1
I7
I9
I2
I3
I8
tp1326
F0.95
s(I1
I5
I8
I9
I3
I4
I6
tp1327
F1.0
s(I1
I3
I7
I9
I2
I5
I8
tp1328
F1.0
s(I1
I3
I4
I7
I2
I5
I6
tp1329
F1.0
s(I1
I5
I4
I7
tp1330
F0.9545
s(I1
I3
I4
I8
I2
I5
I6
I9
tp1331
F0.999999995
s(I1
I7
I9
tp1332
F0.5
s(I1
I3
I6
I8
I4
I5
I7
I9
tp1333
F0.995
s(I2
I3
I5
I4
I7
I8
tp1334
F0.95
s(I2
I3
I7
I8
I4
I5
I6
I9
tp1335
F0.95
s(I7
I9
I5
tp1336
F0.5
s(I1
I2
I5
I3
I7
tp1337
F0.5
s(I2
I6
I7
I8
I1
I4
I5
tp1338
F1.0
s(I2
I5
I7
I1
I8
tp1339
F0.5
s(I2
I8
I9
I1
I6
tp1340
F0.5
s(I6
I7
I8
I2
I3
I5
tp1341
F0.95
s(I1
I2
I5
I8
I9
tp1342
F-1.0
s(I1
I4
I5
tp1343
F0.5
s(I2
I5
I6
I8
I9
I1
I3
I4
I7
tp1344
F1.0
s(I3
I4
I8
I2
I5
tp1345
F0.5
s(I1
I6
I7
I5
I8
I9
tp1346
F0.5
s(I1
I4
I7
I9
I2
I3
I8
tp1347
F1.0
s(I2
I4
I8
I1
I3
tp1348
F0.5
s(I2
I4
I5
I8
I1
I7
I9
tp1349
F1.0
s(I1
I2
I5
I9
tp1350
F0.9545499954995005
s(I2
I3
I5
I1
I4
tp1351
F-1.0
s(I1
I3
I6
I9
I2
I4
I8
tp1352
F1.0
s(I5
I9
I1
I6
tp1353
F0.5
s(I3
I4
I5
I8
I1
I2
I6
tp1354
F0.5
s(I2
I4
I8
I1
I9
tp1355
F-1.0
s(I3
I5
I6
I1
I8
tp1356
F0.5
s(I1
I7
I4
I6
tp1357
F0.8199499999999998
s(I1
I6
I3
I7
tp1358
F0.5
s(I1
I5
I8
I3
I6
tp1359
F-1.0
s(I3
I4
I9
I7
I8
tp1360
F1.0
s(I1
I5
I7
I9
tp1361
F0.99815
s(I2
I5
I7
I1
I4
I8
tp1362
F0.95
s(I8
I7
tp1363
F0.5
s(I3
I8
I7
tp1364
F0.5
s(I1
I9
I3
I4
tp1365
F0.999995
s(I1
I5
I6
I9
I3
I7
I8
tp1366
F1.0
s(I1
I2
I5
I4
I6
I8
tp1367
F0.95
s(I2
I6
I8
I4
I9
tp1368
F0.5
s(I1
I2
I6
I7
I9
tp1369
F-1.0
s(I1
I5
I9
I2
I3
tp1370
F1.0
s(I1
I5
I6
tp1371
F0.5
s(I4
I9
I5
tp1372
F0.5
s(I1
I8
I5
tp1373
F0.5
s(I1
I2
I5
I9
I3
I4
I8
tp1374
F1.0
s(I1
I3
I6
I8
I2
I5
I7
I9
tp1375
F0.5
s(I1
I2
I9
I3
I7
tp1376
F-1.0
s(I1
I5
I8
I9
I3
I6
I7
tp1377
F1.0
s(I3
I4
I7
I1
I5
tp1378
F-1.0
s(I1
I2
I7
I8
I9
tp1379
F1.0
s(I1
I2
I7
I3
I5
I6
tp1380
F0.9995
s(I2
I9
I7
tp1381
F0.5
s(I1
I4
I8
I5
I9
tp1382
F0.5
s(I1
I2
I3
I7
I6
I8
I9
tp1383
F1.0
s(I1
I2
I6
I4
I7
I8
tp1384
F-0.8049999999999999
s(I3
I4
I2
tp1385
F0.5
s(I1
I3
I4
I5
tp1386
F0.95
s(I2
I4
I3
tp1387
F0.5
s(I5
I6
I8
I3
I4
I9
tp1388
F0.95
s(I1
I7
I8
I3
I9
tp1389
F-1.0
s(I1
I2
I4
I6
I3
I5
I7
I8
tp1390
F0.95
s(I1
I7
I2
I4
tp1391
F0.5
s(I3
I9
I8
tp1392
F0.5
s(I1
I3
I4
I2
I8
tp1393
F-1.0
s(I3
I7
I8
I5
I6
tp1394
F-1.0
s(I1
I6
I8
I2
I5
tp1395
F1.0
s(I1
I3
I6
I7
I2
I5
I9
tp1396
F-1.0
s(I2
I5
I1
I8
tp1397
F0.5
s(I1
I2
I5
I8
I4
I6
I7
tp1398
F1.0
s(I3
I6
I7
I4
I8
I9
tp1399
F0.95
s(I1
I6
I4
I8
tp1400
F0.5
s(I2
I5
I8
I6
I7
tp1401
F1.0
s(I1
I2
I7
I8
I3
I4
I5
I6
tp1402
F0.95
s(I1
I5
I6
I7
I8
tp1403
F-1.0
s(I1
I3
I9
I2
I4
tp1404
F0.5
s(I3
I4
I6
I8
I1
I5
I9
tp1405
F1.0
s(I1
I6
I7
tp1406
F0.5
s(I1
I5
I7
I9
I3
I4
I6
tp1407
F1.0
s(I4
I8
I2
tp1408
F0.5
s(I1
I9
I6
tp1409
F0.5
s(I2
I9
I3
I6
tp1410
F0.5
s(I1
I4
I5
I9
tp1411
F0.995
s(I5
I8
I9
I1
I6
tp1412
F0.5
s(I1
I3
I4
I9
I2
I5
I7
tp1413
F-1.0
s(I2
I3
I8
I4
I7
tp1414
F-1.0
s(I1
I7
I2
tp1415
F0.5
s(I1
I2
I7
I4
I6
I9
tp1416
F0.9995
s(I2
I8
I4
tp1417
F0.5
s(I3
I7
I2
I8
tp1418
F0.95
s(I2
I3
I6
I7
I8
I1
I4
I5
I9
tp1419
F1.0
s(I3
I4
I6
I1
I5
I8
tp1420
F-0.8500000000000001
s(I1
I2
I5
I6
I9
tp1421
F-1.0
s(I1
I4
I8
I2
I9
tp1422
F0.5
s(I1
I6
I7
I4
I5
I9
tp1423
F0.5
s(I1
I2
I8
I5
I9
tp1424
F0.5
s(I2
I4
I7
I5
I9
tp1425
F-1.0
s(I2
I5
I6
I8
I1
I4
I7
tp1426
F1.0
s(I1
I5
I7
I8
I2
I4
I6
I9
tp1427
F0.95
s(I1
I3
I4
I5
I6
I8
I9
tp1428
F1.0
s(I2
I4
I8
I1
I6
tp1429
F0.5
s(I1
I5
I6
I2
I4
tp1430
F0.5
s(I3
I6
I9
tp1431
F0.5
s(I2
I6
I7
I4
I8
tp1432
F0.5
s(I6
I7
tp1433
F0.5
s(I1
I3
I8
I2
I5
I7
tp1434
F0.5
s(I1
I2
I4
I6
I3
I8
I9
tp1435
F-1.0
s(I1
I3
I6
I2
I5
I7
tp1436
F0.5
s(I1
I2
I4
I7
I3
I5
I9
tp1437
F1.0
s(I2
I3
I8
I1
I5
tp1438
F-1.0
s(I1
I2
I5
I7
I8
tp1439
F-1.0
s(I1
I7
I9
I3
I4
I6
tp1440
F0.95
s(I2
I3
I4
I7
I8
tp1441
F-1.0
s(I1
I3
I5
I6
I2
I7
I8
tp1442
F-1.0
s(I1
I6
I7
I9
I2
I4
I5
tp1443
F-1.0
s(I1
I3
I5
I7
I8
I2
I4
I6
I9
tp1444
F1.0
s(I1
I2
I4
I3
I6
I8
tp1445
F0.95
s(I1
I3
I4
I5
I2
I6
I7
I8
tp1446
F0.95
s(I4
I5
I8
I9
I1
I3
I6
I7
tp1447
F0.95
s(I1
I3
I2
I6
tp1448
F0.5
s(I1
I2
I5
I3
I7
I8
tp1449
F0.95
s(I1
I3
I4
I6
I2
I5
I8
tp1450
F1.0
s(I1
I6
I7
I8
I3
I4
I5
I9
tp1451
F0.5
s(I1
I3
I9
I4
I5
I7
tp1452
F0.95
s(I1
I3
I4
I2
I6
tp1453
F0.5
s(I1
I5
I7
I9
I2
I3
I6
tp1454
F1.0
s(I1
I8
I2
I9
tp1455
F0.5
s(I1
I6
I8
I3
I7
tp1456
F-1.0
s(I2
I6
I7
I1
I4
tp1457
F1.0
s(I3
I1
tp1458
F0.5
s(I1
I3
I5
tp1459
F0.5
s(I1
I4
I7
I9
tp1460
F0.95
s(I2
I4
I6
I1
I7
tp1461
F0.5
s(I1
I4
I6
I9
I2
I5
I8
tp1462
F1.0
s(I1
I3
I4
I5
I2
I6
I7
tp1463
F0.5
s(I3
I4
I5
I6
I1
I2
I7
tp1464
F1.0
s(I1
I4
I5
I2
I3
I7
tp1465
F0.95
s(I1
I3
I7
I5
I9
tp1466
F0.5
s(I2
I4
I1
I8
tp1467
F0.5
s(I5
I7
I9
tp1468
F0.5
s(I1
I5
I3
I7
tp1469
F0.995
s(I1
I3
I5
I8
I6
I7
I9
tp1470
F0.5
s(I6
I8
I9
I3
I4
tp1471
F0.5
s(I9
I4
tp1472
F0.5
s(I1
I7
I8
I4
I6
tp1473
F-1.0
s(I1
I2
I4
I6
I7
I8
I9
tp1474
F1.0
s(I6
I9
I5
tp1475
F0.5
s(I1
I2
I7
I3
I5
I9
tp1476
F0.99995
s(I2
I4
I5
I9
tp1477
F-0.8500000000000001
s(I2
I6
I7
I8
I3
I4
I9
tp1478
F1.0
s(I4
I8
I3
I6
tp1479
F0.95
s(I1
I4
I3
tp1480
F0.5
s(I3
I5
I7
I8
I1
I2
I9
tp1481
F1.0
s(I3
I6
tp1482
F0.5
s(I2
I3
I6
I8
I1
I4
I5
I9
tp1483
F0.95
s(I4
I6
I9
I1
I5
tp1484
F0.5
s(I1
I3
I6
I8
I2
I5
I9
tp1485
F1.0
s(I1
I2
I8
I3
I4
I6
tp1486
F0.99999995
s(I1
I3
I4
I8
I2
I5
I7
tp1487
F0.5
s(I1
I3
I8
I6
I7
I9
tp1488
F0.95
s(I1
I2
I3
I8
I5
I7
I9
tp1489
F1.0
s(I1
I4
I5
I9
I2
I3
I6
tp1490
F1.0
s(I1
I4
I6
I5
I7
tp1491
F-1.0
s(I1
I4
I7
I3
I5
tp1492
F1.0
s(I1
I3
I4
I6
I8
I2
I5
I7
I9
tp1493
F0.5
s(I1
I9
I3
I8
tp1494
F0.5
s(I1
I5
I6
I2
I4
I8
tp1495
F0.995
s(I1
I4
I8
I2
I6
tp1496
F0.5
s(I2
tp1497
F0.5
s(I1
I6
I9
I5
I8
tp1498
F-1.0
s(I1
I5
I9
I3
I8
tp1499
F1.0
s(I2
I7
I8
I1
I5
tp1500
F-1.0
s(I1
I2
I4
I5
I3
I6
I9
tp1501
F1.0
s(I3
I8
I9
tp1502
F0.5
s(I1
I3
I8
I9
I2
I4
I7
tp1503
F0.5
s(I1
I6
I9
I2
I4
I5
tp1504
F0.95
s(I1
I2
I3
I9
I6
I7
I8
tp1505
F1.0
s(I1
I2
I4
I8
I3
I6
I7
tp1506
F-1.0
s(I1
I6
I8
I4
I5
tp1507
F1.0
s(I5
I6
I1
I2
tp1508
F0.95
s(I5
I6
I9
I1
I8
tp1509
F0.5
s(I3
I4
I6
I7
I2
I5
I8
tp1510
F1.0
s(I8
I9
I3
tp1511
F0.5
s(I4
I8
I9
I5
I7
tp1512
F-1.0
s(I1
I3
I6
I5
I9
tp1513
F0.5
s(I1
I2
I4
I9
I3
I5
I8
tp1514
F-1.0
s(I1
I2
I8
I3
I7
tp1515
F-1.0
s(I2
I3
I6
I1
I5
tp1516
F-1.0
s(I1
I2
I3
I9
I5
I6
I8
tp1517
F1.0
s(I2
I8
I9
I3
I5
tp1518
F-1.0
s(I2
I4
I7
I6
I8
tp1519
F0.5
s(I1
I4
I6
I7
I5
I8
I9
tp1520
F1.0
s(I1
I2
I7
I9
I3
I5
I6
tp1521
F1.0
s(I1
I2
I3
I8
tp1522
F0.5
s(I1
I5
I6
I7
I2
I3
I9
tp1523
F1.0
s(I1
I3
I7
I4
I6
tp1524
F-1.0
s(I1
I2
I3
tp1525
F0.5
s(I1
I2
I6
I3
I9
tp1526
F1.0
s(I2
I4
I6
I1
I8
tp1527
F0.5
s(I5
I6
I2
I3
tp1528
F0.95
s(I1
I3
I5
I8
I2
I6
I7
I9
tp1529
F0.5
s(I3
I9
I6
tp1530
F0.5
s(I1
I5
I6
I3
I7
I8
tp1531
F0.95
s(I1
I3
I4
I8
I2
I6
I9
tp1532
F0.5
s(I2
I3
I9
tp1533
F0.5
s(I2
I6
I9
I1
I4
tp1534
F-1.0
s(I1
I4
I9
I2
I7
tp1535
F0.5
s(tF0.5
s(I1
I3
I9
I7
I8
tp1536
F0.5
s(I2
I7
I9
I3
I6
tp1537
F0.5
s(I7
I8
I5
tp1538
F0.5
s(I7
I8
I9
I1
I2
tp1539
F1.0
s(I8
I9
I1
I4
tp1540
F-0.8500000000000001
s(I1
I3
I5
I2
I9
tp1541
F0.5
s(I5
I8
I2
tp1542
F0.5
s(I1
I3
I5
I6
I2
I7
I9
tp1543
F-1.0
s(I6
I8
I9
I1
I4
tp1544
F-1.0
s(I1
I5
I6
I3
I4
I7
tp1545
F0.95
s(I1
I2
I6
I8
I3
I7
I9
tp1546
F1.0
s(I1
I2
I6
I8
I3
I5
I7
tp1547
F1.0
s(I2
I4
I5
I8
I9
I1
I3
I6
I7
tp1548
F1.0
s(I3
I7
I8
I4
I9
tp1549
F0.5
s(I1
I3
I5
I2
I4
I8
tp1550
F0.5495
s(I1
I3
I4
I5
I9
tp1551
F0.5
s(I1
I2
I3
I7
I4
I6
I8
tp1552
F1.0
s(I1
I7
I8
I9
I2
I4
I5
tp1553
F1.0
s(I1
I2
I4
I6
I3
I5
I9
tp1554
F-1.0
s(I1
I3
I2
I9
tp1555
F0.5
s(I3
I6
I7
tp1556
F0.5
s(I6
I7
I9
I1
I3
tp1557
F-1.0
s(I1
I8
I2
I6
tp1558
F0.5
s(I7
I9
I2
tp1559
F0.5
s(I1
I4
I5
I9
I2
I3
I7
tp1560
F1.0
s(I1
I6
I9
I3
I8
tp1561
F0.5
s(I4
I5
I7
I2
I6
tp1562
F0.5
s(I5
I9
I1
tp1563
F0.5
s(I1
I6
I7
I8
I3
I4
I9
tp1564
F1.0
s(I1
I2
I5
I6
I3
I7
I8
I9
tp1565
F0.99995
s(I1
I2
I5
I8
I3
I4
I9
tp1566
F1.0
s(I1
I4
I8
tp1567
F0.5
s(I3
I4
I8
I5
I6
tp1568
F0.5
s(I4
I7
I2
tp1569
F0.5
s(I2
I5
I6
I9
I1
I3
I4
I8
tp1570
F0.5
s(I4
I3
tp1571
F0.5
s(I1
I3
I8
I9
I2
I4
I5
tp1572
F1.0
s(I1
I3
I5
I9
I2
I4
I6
tp1573
F1.0
s(I1
I2
I4
I8
I5
I6
I7
tp1574
F1.0
s(I1
I6
I3
I9
tp1575
F0.999995
s(I1
I4
I5
I7
I8
tp1576
F-1.0
s(I3
I4
I6
I7
I1
I5
I8
tp1577
F-1.0
s(I2
I5
I9
I6
I7
tp1578
F0.5
s(I1
I3
I4
I8
I2
I5
I6
I7
tp1579
F0.9999995
s(I2
I5
I6
I9
I1
I4
I8
tp1580
F-1.0
s(I3
I7
I4
tp1581
F0.5
s(I1
I7
I9
I2
I6
tp1582
F0.5
s(I1
I5
I7
I4
I6
tp1583
F1.0
s(I4
I5
I8
I3
I9
tp1584
F-1.0
s(I1
I2
I4
I9
I3
I5
I6
tp1585
F1.0
s(I1
I5
I2
I8
tp1586
F0.5449999999999999
s(I2
I8
I9
I1
I5
tp1587
F1.0
s(I1
I3
I4
I8
I5
I7
I9
tp1588
F1.0
s(I1
I2
I8
I9
I5
I6
I7
tp1589
F-1.0
s(I3
I8
I2
tp1590
F0.5
s(I1
I2
I3
I5
I6
I7
I9
tp1591
F1.0
s(I5
I6
I7
I8
I3
I4
I9
tp1592
F0.5
s(I3
I5
I7
I2
I8
tp1593
F1.0
s(I1
I4
I5
I6
I2
I3
I7
tp1594
F1.0
s(I1
I2
I9
I7
I8
tp1595
F1.0
s(I2
I3
I7
I5
I6
tp1596
F-1.0
s(I4
I9
I8
tp1597
F0.5
s(I1
I5
I9
I4
I7
tp1598
F1.0
s(I1
I6
I7
I2
I9
tp1599
F0.5
s(I4
I6
I1
tp1600
F0.5
s(I2
I3
I9
I1
I5
I8
tp1601
F0.95
s(I1
I2
I6
I4
I7
tp1602
F0.5
s(I1
I3
I5
I9
I2
I6
I7
tp1603
F1.0
s(I1
I3
I8
I2
I6
I9
tp1604
F0.5
s(I2
I6
I9
I3
I4
tp1605
F0.5
s(I3
I8
I1
I9
tp1606
F0.95
s(I2
I7
I8
I9
tp1607
F0.95
s(I1
I2
I7
I6
I9
tp1608
F-1.0
s(I2
I5
I4
tp1609
F0.5
s(I1
I2
I6
I9
I3
I4
I7
I8
tp1610
F0.99995
s(I3
I4
I5
tp1611
F0.5
s(I1
I3
I5
I8
I2
I4
I7
I9
tp1612
F0.5
s(I2
I5
I9
I3
I6
I7
tp1613
F0.95
s(I1
I2
I5
I7
I3
I4
I9
tp1614
F-1.0
s(I1
I4
I5
I7
I6
I8
I9
tp1615
F1.0
s(I1
I6
I7
I3
I8
tp1616
F0.5
s(I5
I7
I8
I3
I9
tp1617
F-1.0
s(I1
I4
I6
I3
I5
tp1618
F-1.0
s(I2
I4
I5
I1
I6
tp1619
F0.5
s(I1
I2
I8
I9
I3
I4
I6
I7
tp1620
F0.9995
s(I1
I3
I6
I7
I5
I8
I9
tp1621
F-1.0
s(I1
I2
I4
I6
I8
I9
tp1622
F0.9995
s(I1
I3
I4
I9
I5
I6
I8
tp1623
F-1.0
s(I3
I8
I9
I2
I4
tp1624
F0.5
s(I1
I8
I9
I2
I5
tp1625
F1.0
s(I1
I9
I2
I3
tp1626
F0.995
s(I1
I2
I7
I8
I4
I5
I6
tp1627
F1.0
s(I5
I6
I8
tp1628
F0.5
s(I1
I2
I4
I3
I5
I8
tp1629
F0.995
s(I1
I9
I3
tp1630
F0.5
s(I1
I2
I3
I4
I8
I5
I6
I7
I9
tp1631
F1.0
s(I1
I2
I5
I7
I9
I3
I4
I6
I8
tp1632
F1.0
s(I1
I2
I8
I3
I5
I7
tp1633
F0.95
s(I1
I3
I5
I7
I2
I4
I8
tp1634
F1.0
s(I3
I4
I7
I2
I6
tp1635
F0.5
s(I1
I6
I7
I9
I3
I4
I5
I8
tp1636
F0.9995
s(I1
I2
I3
I4
I5
tp1637
F1.0
s(I1
I2
I7
I3
I6
tp1638
F-1.0
s(I1
I2
I8
I6
I7
I9
tp1639
F0.9999995
s(I1
I3
I5
I2
I6
I9
tp1640
F0.95
s(I7
I8
I9
I3
I4
tp1641
F1.0
s(I3
I5
I2
tp1642
F0.5
s(I1
I5
I9
I7
I8
tp1643
F1.0
s(I2
I6
I8
I1
I7
tp1644
F-1.0
s(I1
I6
I9
I5
I7
I8
tp1645
F-0.8049999999999999
s(I1
I3
I7
I8
I9
I2
I4
I5
I6
tp1646
F1.0
s(I2
I3
I4
I5
I9
tp1647
F-1.0
s(I5
I7
tp1648
F0.5
s(I2
I3
I8
I6
I9
tp1649
F1.0
s(I1
I3
I6
I2
I7
I8
tp1650
F0.995
s(I1
I4
I5
I8
I2
I6
I9
tp1651
F-1.0
s(I1
I3
I6
I8
I2
I4
I7
tp1652
F0.5
s(I2
I6
I7
I8
I1
I3
I4
I5
tp1653
F0.95
s(I1
I2
I4
I6
I9
tp1654
F-1.0
s(I2
I6
I4
I9
tp1655
F0.5
s(I1
I2
I6
I5
I9
tp1656
F0.5
s(I1
I5
I8
I9
I2
I3
I4
tp1657
F1.0
s(I4
I5
I7
I8
I2
I3
I6
I9
tp1658
F0.95
s(I3
I4
I9
I1
I5
tp1659
F0.5
s(I1
I4
I3
I6
tp1660
F0.9815
s(I1
I4
I8
I3
I5
I7
tp1661
F0.95
s(I3
I4
I7
I5
I6
tp1662
F0.5
s(I4
I6
I8
I1
I7
tp1663
F0.5
s(I3
I5
I8
I4
I9
tp1664
F0.5
s(I3
I4
I5
I8
I6
I7
I9
tp1665
F0.5
s(I1
I3
I5
I9
I4
I7
I8
tp1666
F1.0
s(I3
tp1667
F0.5
s(I1
I6
I7
I2
I4
tp1668
F0.5
s(I1
I2
I8
I9
I4
I5
I6
I7
tp1669
F0.9995
s(I1
I2
I6
I4
I8
tp1670
F0.5
s(I1
I3
I4
I6
I7
tp1671
F0.5
s(I1
I4
I5
I6
I2
I3
I9
tp1672
F1.0
s(I3
I4
I8
I6
I7
tp1673
F0.5
s(I2
I6
I8
I1
I5
I7
tp1674
F0.95
s(I4
I7
I8
tp1675
F0.5
s(I7
I8
I1
I5
tp1676
F0.95
s(I1
I2
I6
I7
I4
I5
I9
tp1677
F0.5
s(I2
I3
I4
I7
I5
I6
I9
tp1678
F-1.0
s(I1
I3
I8
I9
I4
I5
I7
tp1679
F-1.0
s(I1
I2
I8
I3
I6
I9
tp1680
F0.995
s(I1
I3
I8
I2
I7
tp1681
F0.5
s(I1
I6
I9
I2
I7
tp1682
F0.5
s(I4
I5
I7
I1
I3
tp1683
F-1.0
s(I1
I2
I4
I9
I3
I5
I6
I7
tp1684
F0.99995
s(I2
I3
I6
I8
I4
I7
I9
tp1685
F-1.0
s(I1
I6
I7
I5
I8
tp1686
F-1.0
s(I2
I4
tp1687
F0.5
s(I5
I9
tp1688
F0.5
s(I1
I2
I6
I7
I3
I5
I8
I9
tp1689
F0.99999995
s(I1
I6
I2
I3
tp1690
F0.5
s(I1
I3
I8
I2
I7
I9
tp1691
F0.5
s(I1
I3
I6
I4
I9
tp1692
F0.5
s(I1
I2
I5
I7
I4
I6
I8
tp1693
F0.5
s(I1
I5
I2
tp1694
F0.5
s(I4
I9
I1
tp1695
F0.5
s(I1
I8
I9
tp1696
F0.5
s(I4
I6
I8
tp1697
F0.5
s(I1
I3
I6
I9
I4
I5
I7
tp1698
F1.0
s(I1
I3
I4
I5
I6
I7
I9
tp1699
F1.0
s(I1
I8
I9
I2
I6
tp1700
F0.5
s(I2
I9
I3
tp1701
F0.5
s(I8
I1
tp1702
F0.5
s(I1
I5
I7
I8
I3
I4
I9
tp1703
F-1.0
s(I1
I2
I7
I3
I8
I9
tp1704
F0.999995
s(I2
I3
I4
I9
I1
I5
I7
tp1705
F0.5
s(I1
I3
I8
I5
I9
tp1706
F0.5
s(I2
I6
I8
I9
I1
I3
I4
I5
tp1707
F0.995
s(I2
I4
I7
tp1708
F0.5
s(I1
I5
I8
I6
I7
I9
tp1709
F0.95
s(I3
I4
I5
I9
I1
I7
I8
tp1710
F0.5
s(I2
I6
I8
I9
I1
I3
I5
I7
tp1711
F0.95
s(I2
I5
I8
I1
I3
tp1712
F1.0
s(I2
I3
I4
I1
I8
tp1713
F0.5
s(I1
I2
I9
I3
I4
I8
tp1714
F0.9545
s(I1
I6
I7
I8
I3
I4
I5
tp1715
F1.0
s(I6
I8
I3
tp1716
F0.5
s(I1
I6
I8
I2
I3
I4
tp1717
F0.5
s(I1
I4
I9
I3
I6
tp1718
F1.0
s(I1
I4
I8
I3
I9
tp1719
F-1.0
s(I1
I6
I3
tp1720
F0.5
s(I1
I8
I9
I5
I6
tp1721
F-1.0
s(I4
I8
I6
tp1722
F0.5
s(I1
I2
I8
I9
I3
I5
I6
tp1723
F-1.0
s(I4
I5
I9
tp1724
F0.5
s(I1
I4
I5
I9
I6
I7
I8
tp1725
F1.0
s(I1
I2
I4
I8
I3
I6
I9
tp1726
F1.0
s(I1
I4
I7
I3
I6
tp1727
F1.0
s(I3
I5
I9
I4
I7
tp1728
F-1.0
s(I1
I2
I5
I6
I7
tp1729
F0.5
s(I1
I3
I4
I9
I2
I5
I6
I8
tp1730
F0.9995
s(I2
I4
I6
I8
I1
I3
I5
tp1731
F-1.0
s(I1
I5
I6
I8
I2
I3
I4
I7
tp1732
F0.95
s(I2
I3
I5
I6
I1
I8
I9
tp1733
F-1.0
s(I1
I5
I6
I8
I2
I3
I7
I9
tp1734
F0.95
s(I2
I6
I9
I1
I3
I5
tp1735
F-0.8005000000000001
s(I1
I4
I2
I3
tp1736
F0.5449999999999999
s(I1
I2
I4
I6
I7
tp1737
F0.5
s(I3
I5
I9
tp1738
F0.5
s(I1
I2
I4
I8
I3
I5
I9
tp1739
F-1.0
s(I2
I7
I6
tp1740
F0.5
s(I1
I3
I5
I6
I9
tp1741
F0.5
s(I1
I3
I4
I9
I2
I6
I7
tp1742
F0.5
s(I3
I5
I6
I7
I4
I8
I9
tp1743
F1.0
s(I2
I3
I6
I7
I4
I8
I9
tp1744
F0.5
s(I1
I7
I4
tp1745
F0.5
s(I2
I3
I6
I1
I8
tp1746
F0.5
s(I1
I3
I7
I6
I8
tp1747
F0.5
s(I2
I5
I8
tp1748
F0.5
s(I5
I8
I9
tp1749
F0.5
s(I1
I4
I6
I8
I9
I2
I3
I5
I7
tp1750
F1.0
s(I2
I6
I8
I1
I3
tp1751
F0.5
s(I1
I3
I5
I8
I4
I7
I9
tp1752
F0.5
s(I1
I6
I7
I8
I2
I3
I5
tp1753
F1.0
s(I1
I3
I5
I6
I8
I9
tp1754
F0.95
s(I1
I4
I7
I2
I5
tp1755
F1.0
s(I1
I2
I4
I5
I3
I6
I8
I9
tp1756
F0.95
s(I2
I6
I9
tp1757
F0.5
s(I1
I2
I6
I7
I8
I3
I4
I5
I9
tp1758
F0.5
s(I2
I6
I9
I1
I7
tp1759
F-1.0
s(I1
I2
I3
I9
I4
I5
I7
tp1760
F1.0
s(I1
I5
I7
I8
I4
I6
I9
tp1761
F-1.0
s(I2
I3
I4
I6
I8
I1
I5
I7
I9
tp1762
F1.0
s(I1
I2
I3
I6
I8
tp1763
F1.0
s(I1
I2
I5
I8
I4
I6
I9
tp1764
F1.0
s(I1
I5
I6
I8
I2
I3
I4
tp1765
F0.5
s(I2
I3
I5
I7
I1
I4
I9
tp1766
F1.0
s(I1
I4
I5
I3
I8
tp1767
F0.5
s(I6
I8
I9
I1
I3
tp1768
F-1.0
s(I1
I3
I4
I6
I2
I8
I9
tp1769
F-1.0
s(I2
I3
I4
I1
I7
tp1770
F0.5
s(I1
I7
I8
I6
I9
tp1771
F-1.0
s(I6
I4
tp1772
F0.5
s(I7
I9
I1
I3
tp1773
F0.995
s(I2
I3
I5
I6
I9
I1
I4
I7
I8
tp1774
F1.0
s(I2
I3
I4
I8
I5
I6
I7
tp1775
F0.5
s(I2
I4
I8
I1
I5
I9
tp1776
F0.95
s(I1
I6
I9
I2
I4
I7
tp1777
F0.95
s(I3
I5
I6
I8
I1
I2
I7
tp1778
F-1.0
s(I1
I5
I9
I2
I4
tp1779
F1.0
s(I1
I2
I7
I4
I6
I8
tp1780
F0.95
s(I1
I4
I6
I8
I2
I5
I7
tp1781
F-1.0
s(I2
I9
I8
tp1782
F0.5
s(I1
I2
I3
I5
I4
I6
I8
tp1783
F1.0
s(I9
I2
tp1784
F0.5
s(I1
I2
I3
I9
I4
I7
I8
tp1785
F1.0
s(I1
I3
I5
I9
I2
I4
I8
tp1786
F1.0
s(I1
I2
I9
I3
I8
tp1787
F0.5
s(I1
I3
I4
I6
tp1788
F0.365
s(I1
I2
I8
I9
I3
I5
I6
I7
tp1789
F0.95
s(I1
I2
I8
I4
I5
I7
tp1790
F0.95
s(I1
I2
I6
I3
I4
I5
tp1791
F-0.8500000000000001
s(I2
I4
I6
I8
I1
I3
I7
tp1792
F-1.0
s(I1
I8
I4
I6
tp1793
F-0.8500000000000001
s(I1
I6
I7
I8
I2
I4
I5
I9
tp1794
F0.5
s(I1
I5
I6
I7
I4
I8
I9
tp1795
F0.5
s(I1
I3
I5
I4
I7
I8
tp1796
F0.95
s(I1
I2
I3
I7
I4
I5
I9
tp1797
F1.0
s(I3
I6
I9
I1
I8
tp1798
F1.0
s(I2
I4
I9
I6
I8
tp1799
F0.5
s(I6
I9
I4
I8
tp1800
F0.95
s(I1
I3
I4
I2
I5
I7
tp1801
F0.5
s(I1
I2
I4
I8
I3
I5
I7
tp1802
F1.0
s(I1
I2
I6
I7
I3
I4
I8
tp1803
F0.5
s(I1
I2
I7
I9
I3
I4
I5
I8
tp1804
F0.9999995
s(I3
I4
I8
I9
tp1805
F-0.8500000000000001
s(I1
I7
I8
I3
I6
tp1806
F-1.0
s(I5
I7
I1
I4
tp1807
F0.95
s(I1
I2
I7
I8
I3
I4
I5
I9
tp1808
F0.5
s(I1
I7
I8
I9
I3
I4
I6
tp1809
F1.0
s(I1
I6
I7
I8
I9
tp1810
F0.5
s(I2
I5
I8
I9
I3
I6
I7
tp1811
F1.0
s(I1
I7
I6
I9
tp1812
F0.95
s(I1
I2
I3
I7
I8
I4
I5
I6
I9
tp1813
F1.0
s(I8
I9
I7
tp1814
F0.5
s(I1
I2
I3
I5
tp1815
F0.499985149999865
s(I1
I3
I5
I7
I4
I8
I9
tp1816
F1.0
s(I1
I9
I6
I8
tp1817
F0.504995
s(I2
I5
I9
I3
I4
I8
tp1818
F0.5
s(I1
I2
I7
I3
I4
I5
tp1819
F0.9995
s(I5
I8
I9
I1
I3
tp1820
F-1.0
s(I1
I2
I7
I9
I4
I6
I8
tp1821
F-1.0
s(I2
I5
I9
I1
I4
tp1822
F-1.0
s(I3
I9
tp1823
F0.5
s(I1
I2
I6
I7
I8
I9
tp1824
F0.95
s(I4
I5
I9
I3
I8
tp1825
F0.5
s(I4
I8
I9
I1
I7
tp1826
F0.5
s(I1
I3
I5
I6
I2
I4
I7
I8
tp1827
F0.95
s(I1
I6
I5
I8
tp1828
F0.5
s(I1
I7
I9
I2
I3
I5
tp1829
F0.95
s(I5
I6
I7
I1
I2
tp1830
F-1.0
s(I6
I7
I8
I4
I5
tp1831
F0.5
s(I2
I4
I9
tp1832
F0.5
s(I1
I3
I5
I6
I4
I7
I8
tp1833
F-1.0
s(I1
I4
I5
I6
I3
I7
I9
tp1834
F1.0
s(I1
I2
I7
tp1835
F0.5
s(I1
I6
I8
I9
I4
I5
I7
tp1836
F-1.0
s(I4
tp1837
F0.5
s(I1
I2
I5
I8
I3
I7
I9
tp1838
F1.0
s(I1
I6
I9
I2
I4
tp1839
F0.5
s(I3
I9
I2
tp1840
F0.5
s(I5
I6
I7
I9
I1
I3
I8
tp1841
F-1.0
s(I5
I6
I7
I3
I9
tp1842
F0.5
s(I2
I3
I5
tp1843
F0.5
s(I1
I2
I6
I8
I5
I7
I9
tp1844
F1.0
s(I3
I5
I6
I1
I2
tp1845
F1.0
s(I5
I6
I3
tp1846
F0.5
s(I1
I3
I6
I2
I5
I9
tp1847
F0.995
s(I1
I4
I7
I8
I3
I5
I9
tp1848
F1.0
s(I1
I2
I6
I9
I3
I5
I8
tp1849
F-1.0
s(I6
I9
I1
I5
tp1850
F0.95
s(I7
I8
I1
tp1851
F0.5
s(I1
I3
I8
I4
I7
I9
tp1852
F0.9995
s(I4
I5
I6
I1
I8
tp1853
F1.0
s(I3
I4
I8
I9
I1
I5
I7
tp1854
F0.5
s(I1
I2
I9
I4
I5
I6
tp1855
F0.95
s(I1
I6
I3
I5
tp1856
F0.5
s(I4
I8
I9
I2
I5
tp1857
F0.5
s(I1
I3
I6
I8
I2
I5
I7
tp1858
F0.5
s(I2
I8
I1
I9
tp1859
F0.95
s(I5
I7
I8
I3
I6
tp1860
F-1.0
s(I1
I5
I7
I3
I6
tp1861
F-1.0
s(I1
I3
I6
I7
I8
I2
I4
I5
I9
tp1862
F0.5
s(I1
I8
tp1863
F0.5
s(I2
I4
I6
I8
I1
I7
I9
tp1864
F-1.0
s(I1
I2
I7
I8
I3
I4
I6
I9
tp1865
F0.95
s(I1
I3
I4
I7
I2
I5
I8
tp1866
F1.0
s(I3
I4
I5
I7
I1
I6
I9
tp1867
F1.0
s(I1
I8
I2
I5
tp1868
F0.95
s(I2
I3
I4
I5
I8
tp1869
F0.5
s(I2
I3
I8
I1
I6
tp1870
F0.5
s(I2
I3
I4
I7
tp1871
F-0.8500000000000001
s(I1
I3
I8
tp1872
F0.5
s(I2
I6
I9
I1
I5
I8
tp1873
F0.5
s(I1
I7
I4
I9
tp1874
F0.5
s(I1
I2
I5
I9
I3
I6
I8
tp1875
F1.0
s(I1
I3
I8
I9
I2
I5
I6
tp1876
F-1.0
s(I6
I8
I4
I5
tp1877
F0.5
s(I1
I4
I5
I7
I3
I6
I9
tp1878
F1.0
s(I1
I4
I7
I9
I2
I3
I6
tp1879
F1.0
s(I7
I9
I6
tp1880
F0.5
s(I1
I3
I5
I6
I2
I4
I7
tp1881
F0.5
s(I2
I4
I6
I8
I9
I1
I3
I5
I7
tp1882
F1.0
s(I3
I4
I6
I7
tp1883
F0.5
s(I5
I7
I9
I3
I4
tp1884
F0.5
s(I7
I3
tp1885
F0.5
s(I1
I2
I7
I4
I9
tp1886
F0.5
s(I8
I4
tp1887
F0.5
s(I1
I3
I6
I7
I8
tp1888
F-1.0
s(I1
I3
I5
I9
I2
I7
I8
tp1889
F1.0
s(I2
I3
I1
I8
tp1890
F0.5
s(I4
I7
I6
tp1891
F0.5
s(I2
I5
I8
I6
I9
tp1892
F1.0
s(I1
I7
I3
I5
tp1893
F0.995
s(I1
I2
I4
I6
I8
I3
I5
I7
I9
tp1894
F1.0
s(I2
I6
I7
tp1895
F0.5
s(I1
I5
I6
I8
I2
I4
I7
I9
tp1896
F0.5
s(I1
I3
I8
I2
I6
I7
tp1897
F0.5
s(I1
I3
I6
I8
I9
tp1898
F-1.0
s(I1
I2
I3
I5
I7
I8
I9
tp1899
F1.0
s(I1
I4
I6
I7
I3
I5
I9
tp1900
F1.0
s(I1
I4
I5
I2
I3
tp1901
F1.0
s(I1
I2
I7
I5
I8
tp1902
F0.5
s(I1
I3
I7
I8
I2
I5
I9
tp1903
F0.5
s(I1
I4
I5
I6
I2
I8
I9
tp1904
F1.0
s(I2
I5
I3
tp1905
F0.5
s(I2
I3
I6
I1
I5
I7
tp1906
F0.95
s(I4
I5
tp1907
F0.5
s(I2
I5
I6
I4
I9
tp1908
F0.5
s(I1
I4
I8
I2
I3
tp1909
F0.5
s(I3
I8
I6
tp1910
F0.5
s(I1
I2
I3
I6
I5
I7
I8
tp1911
F1.0
s(I1
I3
I7
I8
I2
I6
I9
tp1912
F0.5
s(I1
I3
I6
I7
I2
I4
I8
tp1913
F-1.0
s(I1
I6
I4
I5
tp1914
F0.5495
s(I5
I7
I9
I1
I4
tp1915
F0.5
s(I1
I5
I6
I7
I2
I8
I9
tp1916
F1.0
s(I1
I5
I7
tp1917
F0.5
s(I2
I4
I1
I6
tp1918
F0.5
s(I1
I8
I4
tp1919
F0.5
s(I4
I6
I5
tp1920
F0.5
s(I1
I4
I9
I5
I7
tp1921
F-1.0
s(I1
I5
I7
I8
I2
I3
I9
tp1922
F-1.0
s(I1
I2
I4
I3
I5
I6
tp1923
F0.95
s(I2
I9
I6
tp1924
F0.5
s(I3
I4
I6
I1
I5
I7
tp1925
F0.95
s(I1
I4
I5
I6
I8
I9
tp1926
F0.95
s(I1
I3
I5
I7
I9
tp1927
F-1.0
s(I1
I2
I7
I8
I3
I5
I6
tp1928
F-1.0
s(I3
I4
I1
tp1929
F0.5
s(I1
I8
I9
I3
I5
tp1930
F-1.0
s(I1
I3
I9
tp1931
F0.5
s(I1
I2
I8
I5
I7
I9
tp1932
F-0.8000499999999999
s(I1
I3
I5
I2
I6
I7
tp1933
F0.95
s(I1
I7
I8
I2
I9
tp1934
F0.5
s(I2
I3
I6
I8
I1
I5
I9
tp1935
F1.0
s(I1
I3
I4
I8
I9
tp1936
F-1.0
s(I1
I4
I2
I9
tp1937
F0.995
s(I1
I3
I4
I2
I7
tp1938
F0.5
s(I1
I3
I9
I4
I7
I8
tp1939
F0.95
s(I1
I2
I5
I3
I8
tp1940
F0.5
s(I2
I3
I5
I9
I4
I7
I8
tp1941
F1.0
s(I2
I6
I1
I5
tp1942
F0.98015
s(I1
I3
I4
I6
I2
I7
I8
tp1943
F-1.0
s(I1
I6
I7
I9
I3
I4
I8
tp1944
F0.5
s(I2
I4
I9
I1
I8
tp1945
F0.5
s(I2
I6
I7
I8
I9
I1
I3
I4
I5
tp1946
F1.0
s(I1
I3
I9
I5
I6
tp1947
F-1.0
s(I4
I8
I3
tp1948
F0.5
s(I1
I9
I7
tp1949
F0.5
s(I2
I3
I4
I6
I1
I5
I8
tp1950
F1.0
s(I1
I2
I7
I3
I6
I9
tp1951
F0.995
s(I1
I2
I4
I5
I3
I6
I7
tp1952
F-1.0
s(I1
I3
I7
I9
I2
I4
I6
tp1953
F-1.0
s(I2
I3
I5
I1
I8
I9
tp1954
F0.95
s(I2
I8
I5
tp1955
F0.5
s(I1
I2
I4
I8
I5
I6
I9
tp1956
F1.0
s(I1
I3
I7
I2
I4
I6
tp1957
F-0.8500000000000001
s(I1
I3
I5
I2
I6
tp1958
F0.5
s(I1
I2
I6
I3
I5
I8
tp1959
F0.5
s(I3
I5
I6
tp1960
F0.5
s(I1
I5
I7
I2
I4
I6
tp1961
F0.9995
s(I2
I5
I8
I1
I6
tp1962
F1.0
s(I2
I7
I1
tp1963
F0.5
s(I1
I2
I6
I5
I7
tp1964
F-1.0
s(I1
I2
I9
tp1965
F0.5
s(I2
I3
I5
I1
I9
tp1966
F1.0
s(I1
I4
I5
I9
I3
I6
I8
tp1967
F1.0
s(I3
I6
I8
tp1968
F0.5
s(I2
I5
I7
I3
I4
tp1969
F0.5
s(I1
I5
I3
I8
tp1970
F0.995
s(I1
I3
I4
I7
I9
tp1971
F-1.0
s(I2
I8
I5
I9
tp1972
F0.5
s(I5
I6
I8
I2
I9
tp1973
F0.5
s(I3
I4
I7
I1
I6
I9
tp1974
F0.95
s(I1
I8
I9
I2
I4
I6
tp1975
F0.95
s(I1
I3
I4
I7
I5
I6
I9
tp1976
F1.0
s(I1
I2
I4
I8
I5
I6
I7
I9
tp1977
F0.9995
s(I1
I4
I8
I9
I2
I3
I5
I6
tp1978
F0.995
s(I1
I2
I4
I9
I5
I7
I8
tp1979
F-1.0
s(I1
I7
I8
I9
tp1980
F0.99995
s(I1
I2
I8
I5
I6
I7
tp1981
F0.995
s(I1
I3
I8
I9
I4
I6
I7
tp1982
F-1.0
s(I5
I6
I9
I1
I2
tp1983
F-1.0
s(I1
I2
I4
I5
I6
tp1984
F1.0
s(I1
I3
I6
tp1985
F0.5
s(I2
I4
I6
I1
I8
I9
tp1986
F0.95
s(I3
I4
I6
I8
I1
I5
I7
tp1987
F-1.0
s(I1
I3
I9
I2
I6
tp1988
F0.5
s(I2
I4
I6
I8
I1
I5
I7
I9
tp1989
F0.95
s(I3
I4
I6
I1
I5
tp1990
F-1.0
s(I1
I5
I2
I4
tp1991
F0.995
s(I1
I8
I3
I6
tp1992
F0.95
s(I5
I6
tp1993
F0.5
s(I1
I3
I6
I9
I5
I7
I8
tp1994
F1.0
s(I1
I7
I9
I2
I3
tp1995
F0.5
s(I1
I4
I6
I8
I9
tp1996
F-1.0
s(I2
I3
I9
I4
I7
tp1997
F-1.0
s(I1
I2
I5
I3
I4
I7
tp1998
F0.9999995
s(I1
I3
I8
I6
I7
tp1999
F0.5
s(I1
I2
I8
I9
I3
I4
I5
tp2000
F-1.0
s(I6
I9
I4
tp2001
F0.5
s(I4
I7
I8
I9
I3
I5
I6
tp2002
F1.0
s(I2
I3
I4
I5
I1
I8
I9
tp2003
F-1.0
s(I1
I5
I6
I8
I2
I4
I7
tp2004
F0.5
s(I4
I5
I8
I9
I1
I3
I7
tp2005
F1.0
s(I5
tp2006
F0.5
s(I1
I3
I4
I6
I5
I7
I8
tp2007
F1.0
s(I2
I6
I8
I9
I1
I3
I5
tp2008
F-1.0
s(I1
I2
I5
I6
I3
I8
I9
tp2009
F-1.0
s(I1
I5
I6
I8
I4
I7
I9
tp2010
F0.5
s(I7
I8
I9
I1
I4
tp2011
F1.0
s(I1
I4
I6
I8
I2
I5
I9
tp2012
F0.5
s(I1
I4
I5
I7
tp2013
F0.8015
s(I1
I2
I9
I5
I8
tp2014
F0.5
s(I2
I4
I6
I5
I8
tp2015
F0.5
s(I1
I3
I7
I9
I2
I4
I8
tp2016
F-1.0
s(I1
I5
I6
I2
I3
I8
tp2017
F0.995
s(I1
I3
I6
I8
I4
I5
I7
tp2018
F1.0
s(I1
I5
I8
I3
I4
tp2019
F0.5
s(I1
I4
I9
I2
I3
I5
tp2020
F0.95
s(I5
I9
I2
tp2021
F0.5
s(I1
I3
I4
I5
I7
I9
tp2022
F0.95
s(I1
I3
I7
I9
tp2023
F0.819995
s(I1
I3
I7
I8
I2
I4
I6
tp2024
F-1.0
s(I1
I4
I5
I2
I3
I9
tp2025
F0.95
s(I1
I2
I9
I4
I7
I8
tp2026
F0.995
s(I3
I4
I7
I8
tp2027
F0.95
s(I6
I8
I7
tp2028
F0.5
s(I3
I4
I6
I7
I8
tp2029
F-1.0
s(I1
I3
I9
I2
I5
I8
tp2030
F0.95
s(I1
I4
I7
I8
I2
I5
I9
tp2031
F1.0
s(I1
I3
I6
I8
I2
I4
I7
I9
tp2032
F0.5
s(I2
I3
I5
I7
I9
tp2033
F-1.0
s(I2
I5
I6
I1
I8
tp2034
F0.5
s(I2
I4
I5
I8
I1
I6
I7
tp2035
F1.0
s(I1
I3
I7
I4
I5
tp2036
F-1.0
s(I1
I3
I5
I7
I2
I4
I6
tp2037
F1.0
s(I3
I5
I2
I4
tp2038
F0.95
s(I1
I2
I9
I3
I5
tp2039
F-1.0
s(I2
I5
I7
I1
I4
tp2040
F1.0
s(I1
I3
I6
I9
I2
I5
I8
tp2041
F1.0
s(I8
I9
I2
tp2042
F0.5
s(I2
I5
tp2043
F0.5
s(I1
I4
I8
I5
I7
tp2044
F-1.0
s(I5
I8
tp2045
F0.5
s(I1
I2
I6
I3
I7
I9
tp2046
F0.9999999819995
s(I4
I7
I1
tp2047
F0.5
s(I1
I4
I6
I9
tp2048
F0.9995
s(I1
I6
I8
I3
I5
I9
tp2049
F-0.8500000000000001
s(I1
I2
I3
I4
I8
tp2050
F1.0
s(I1
I3
I4
I9
I2
I5
I6
I7
tp2051
F0.95
s(I1
I6
I7
I3
I8
I9
tp2052
F0.95
s(I1
I4
I9
I7
I8
tp2053
F0.5
s(I8
I2
tp2054
F0.5
s(I1
I2
I3
I6
I4
I7
I8
tp2055
F1.0
s(I2
I5
I1
I6
tp2056
F0.95
s(I1
I6
I8
I2
I3
tp2057
F0.5
s(I3
I9
I7
tp2058
F0.5
s(I2
I3
I8
tp2059
F0.5
s(I1
I2
I9
I6
I7
tp2060
F0.5
s(I1
I3
I4
I5
I2
I8
I9
tp2061
F-1.0
s(I1
I2
I4
I5
I7
I9
tp2062
F-0.8049999999999999
s(I2
I5
I6
I7
I1
I4
I9
tp2063
F1.0
s(I1
I7
I9
I2
I8
tp2064
F-1.0
s(I1
I2
I4
I7
I5
I6
I8
tp2065
F1.0
s(I5
I8
I9
I1
I4
tp2066
F-1.0
s(I1
I3
I6
I7
I4
I5
I8
tp2067
F-1.0
s(I7
I8
I4
tp2068
F0.5
s(I1
I3
I4
I9
I6
I7
I8
tp2069
F0.5
s(I3
I4
I9
I1
I2
tp2070
F0.5
s(I4
I8
I9
I1
I2
tp2071
F-1.0
s(I1
I3
I8
I2
I4
I5
tp2072
F0.95
s(I1
I3
I6
I2
I4
I9
tp2073
F0.5
s(I1
I3
I5
I9
tp2074
F0.5499499999999999
s(I1
I4
I6
I5
I8
tp2075
F-1.0
s(I8
I9
tp2076
F0.5
s(I1
I6
I7
I5
I9
tp2077
F0.5
s(I1
I2
I8
I9
I3
I4
I7
tp2078
F-1.0
s(I4
I6
I8
I1
I9
tp2079
F-1.0
s(I1
I2
I3
I4
I9
I5
I6
I7
I8
tp2080
F1.0
s(I1
I6
I7
I2
I3
tp2081
F0.5
s(I3
I5
I8
I6
I9
tp2082
F0.5
s(I2
I7
I3
I4
tp2083
F0.5
s(I1
I5
I7
I8
tp2084
F-0.9984999999999999
s(I1
I2
I5
I7
I3
I6
I9
tp2085
F1.0
s(I1
I2
I5
I3
I4
I8
tp2086
F0.95
s(I1
I4
I5
I7
I2
I6
I9
tp2087
F1.0
s(I1
I2
I5
I6
I8
I9
tp2088
F0.95
s(I1
I6
I9
I4
I5
tp2089
F0.5
s(I1
I2
I5
I8
I3
I4
I7
tp2090
F1.0
s(I5
I7
I1
tp2091
F0.5
s(I2
I3
I5
I4
I8
tp2092
F0.5
s(I1
I4
I8
I9
tp2093
F-0.8000499999999999
s(I1
I2
I8
I4
I5
I9
tp2094
F0.95
s(I1
I2
I4
I6
I5
I7
I9
tp2095
F-1.0
s(I2
I4
I5
I1
I8
tp2096
F0.5
s(I7
I9
I3
tp2097
F0.5
s(I1
I3
I6
I8
I4
I5
I9
tp2098
F0.5
s(I1
I4
I7
I9
I2
I5
I6
tp2099
F1.0
s(I1
I7
I9
I4
I6
I8
tp2100
F-0.8049999999999999
s(I5
I9
I6
tp2101
F0.5
s(I1
I5
I2
I3
tp2102
F0.9995
s(I1
I2
I3
I6
I4
I5
I7
tp2103
F1.0
s(I1
I3
I6
I4
I5
I8
tp2104
F0.995
s(I1
I2
I6
I7
I3
I4
I9
tp2105
F0.5
s(I1
I2
I5
I4
I7
I9
tp2106
F0.8015
s(I1
I4
I9
I5
I6
I8
tp2107
F0.995
s(I2
I6
I9
I1
I8
tp2108
F0.5
s(I1
I6
I8
I3
I5
tp2109
F-1.0
s(I1
I3
I8
I9
I2
I5
I6
I7
tp2110
F0.95
s(I1
I2
I6
I3
I4
tp2111
F0.5
s(I2
I4
I6
I1
I5
tp2112
F-1.0
s(I1
I3
I6
I2
I9
tp2113
F0.5
s(I3
I4
I7
I2
I8
tp2114
F-1.0
s(I3
I7
I5
tp2115
F0.5
s(I6
I2
tp2116
F0.5
s(I1
I2
I7
I3
I8
tp2117
F0.5
s(I1
I6
I7
I8
I2
I5
I9
tp2118
F0.5
s(I1
I6
I8
I9
I3
I4
I5
tp2119
F-1.0
s(I4
I8
I6
I9
tp2120
F0.95
s(I2
I3
I9
I1
I7
tp2121
F-1.0
s(I3
I5
I9
I1
I6
tp2122
F0.5
s(I2
I3
I5
I6
I1
I4
I8
tp2123
F-1.0
s(I3
I8
I1
tp2124
F0.5
s(I1
I2
I3
I6
tp2125
F0.818181819819998
s(I1
I3
I8
I7
I9
tp2126
F1.0
s(I1
I3
I5
I7
I2
I6
I9
tp2127
F1.0
s(I1
I4
I8
I9
I5
I6
I7
tp2128
F-1.0
s(I1
I5
I8
tp2129
F0.5
s(I3
I4
I8
I1
I5
tp2130
F-1.0
s(I1
I8
I3
tp2131
F0.5
s(I2
I6
I7
I9
I1
I3
I5
tp2132
F1.0
s(I1
I3
I5
I2
I8
tp2133
F1.0
s(I3
I4
I6
I2
I5
I8
tp2134
F0.95
s(I1
I4
I5
I2
I6
tp2135
F0.5
s(I6
I5
tp2136
F0.5
s(I1
I4
I9
I3
I6
I7
tp2137
F0.95
s(I1
I5
I8
I2
I3
tp2138
F0.5
s(I1
I2
I3
I7
I9
tp2139
F1.0
s(I1
I7
I9
I4
I5
tp2140
F-1.0
s(I1
I2
I4
I7
I8
I9
tp2141
F0.95
s(I2
I3
I8
I1
I4
tp2142
F-1.0
s(I1
I4
I2
I7
tp2143
F0.5
s(I3
I5
I9
I4
I8
tp2144
F0.5
s(I2
I4
I9
I1
I3
tp2145
F0.5
s(I1
I4
I6
I8
I3
I5
I7
tp2146
F1.0
s(I1
I3
I5
I4
I7
tp2147
F0.5
s(I4
I8
I9
I1
I3
I7
tp2148
F0.95
s(I1
I2
I4
I5
tp2149
F-0.8000018
s(I1
I5
I9
I3
I6
tp2150
F1.0
s(I1
I3
I4
I2
I6
I7
tp2151
F0.5
s(I2
I5
I7
I9
I3
I4
I8
tp2152
F0.5
s(I1
I3
I4
I6
I9
tp2153
F0.5
s(I1
I6
I7
I9
I2
I3
I8
tp2154
F-1.0
s(I1
I4
I7
I8
I5
I6
I9
tp2155
F1.0
s(I1
I2
I4
I7
I5
I6
I9
tp2156
F1.0
s(I1
I2
I5
I9
I6
I7
I8
tp2157
F1.0
s(I1
I6
I8
I4
I5
I7
tp2158
F-0.8005000000000001
s(I1
I2
I3
I8
I9
tp2159
F1.0
s(I2
I3
I1
tp2160
F0.5
s(I1
I2
I3
I6
I7
I4
I5
I8
I9
tp2161
F1.0
s(I5
I6
I7
tp2162
F0.5
s(I1
I6
I9
tp2163
F0.5
s(I2
I5
I8
I4
I9
tp2164
F1.0
s(I1
I5
I7
I3
I8
tp2165
F0.5
s(I1
I3
I2
I7
tp2166
F0.5
s(I1
I2
I3
I4
I5
I7
I9
tp2167
F1.0
s(I3
I5
I6
I8
I1
I2
I9
tp2168
F0.5
s(I1
I2
I8
I3
I5
tp2169
F-1.0
s(I1
I8
I6
I9
tp2170
F-0.985
s(I2
I6
I7
I9
I1
I3
I4
I5
tp2171
F0.995
s(I1
I3
I8
I4
I6
tp2172
F-1.0
s(I1
I2
I4
I3
I6
I9
tp2173
F0.9995
s(I2
I7
I8
I6
I9
tp2174
F-1.0
s(I1
I4
I7
I8
I9
I2
I3
I5
I6
tp2175
F1.0
s(I1
I6
I7
I8
I4
I5
I9
tp2176
F0.5
s(I1
I3
I7
I4
I8
tp2177
F0.5
s(I3
I7
I4
I9
tp2178
F0.5
s(I1
I5
I3
I6
tp2179
F0.995
s(I1
I3
I6
I2
I8
I9
tp2180
F0.95
s(I1
I9
I2
I7
tp2181
F0.99995
s(I1
I2
I5
I3
I6
I9
tp2182
F0.995
s(I3
I8
tp2183
F0.5
s(I6
tp2184
F0.5
s(I4
I7
I8
I6
I9
tp2185
F-1.0
s(I2
I4
I8
I1
I5
tp2186
F-1.0
s(I2
I5
I6
I1
I3
I8
tp2187
F0.5
s(I2
I6
I9
I4
I8
tp2188
F0.5
s(I1
I6
I7
I8
I9
I2
I3
I4
I5
tp2189
F1.0
s(I3
I6
I1
I8
tp2190
F0.5
s(I2
I4
I6
I3
I5
tp2191
F-1.0
s(I1
I8
I9
I4
I5
tp2192
F-1.0
s(I1
I3
I5
I8
I2
I6
I7
tp2193
F0.5
s(I1
I7
I8
I2
I4
I9
tp2194
F0.5
s(I2
I7
I9
I3
I4
tp2195
F0.5
s(I1
I2
I4
I9
I3
I6
I8
tp2196
F0.5
s(I3
I6
I9
I4
I8
tp2197
F1.0
s(I2
I3
I4
I5
I9
I1
I6
I7
I8
tp2198
F0.5
s(I6
I7
I9
I1
I5
tp2199
F0.5
s(I2
I5
I6
I9
I3
I4
I8
tp2200
F0.5
s(I3
I5
I7
I2
I4
tp2201
F1.0
s(I1
I3
I4
I5
I2
I6
I8
tp2202
F0.5
s(I1
I6
I7
I8
I2
I3
I5
I9
tp2203
F0.995
s(I3
I9
I2
I4
tp2204
F0.95
s(I1
I2
I3
I4
I5
I6
I7
I8
I9
tp2205
F1.0
s(I1
I2
I7
I6
I8
I9
tp2206
F0.995
s(I1
I6
I7
I3
I5
tp2207
F0.5
s(I1
I9
I7
I8
tp2208
F0.5
s(I2
I7
I9
I1
I4
I5
tp2209
F0.95
s(I2
I6
I3
tp2210
F0.5
s(I1
I2
I6
I8
I4
I5
I7
I9
tp2211
F0.99995
s(I5
I6
I8
I2
I3
tp2212
F-1.0
s(I2
I5
I7
I3
I9
tp2213
F-1.0
s(I1
I4
I5
I8
I2
I3
I6
tp2214
F-1.0
s(I8
tp2215
F0.5
s(I7
I5
tp2216
F0.5
s(I1
I3
I5
I6
I9
I2
I4
I7
I8
tp2217
F1.0
s(I5
I7
I8
I2
I4
tp2218
F0.5
s(I1
I3
I5
I4
I8
tp2219
F0.5
s(I1
I5
I6
I7
I2
I3
I8
tp2220
F0.5
s(I2
I5
I7
tp2221
F0.5
s(I1
I6
I8
I2
I3
I9
tp2222
F0.5
s(I1
I8
I7
tp2223
F0.5
s(I1
I3
I5
I8
I2
I4
I6
tp2224
F1.0
s(I1
I2
I5
I4
I6
tp2225
F1.0
s(I1
I3
I4
I6
I2
I5
I7
I8
tp2226
F0.95
s(I5
I7
I8
I4
I9
tp2227
F0.5
s(I1
I4
I6
I2
I9
tp2228
F0.5
s(I6
I9
I3
tp2229
F0.5
s(I1
I6
I9
I3
I5
tp2230
F-1.0
s(I5
I8
I6
tp2231
F0.5
s(I2
I3
I4
I9
I1
I6
I7
I8
tp2232
F0.5
s(I1
I5
I3
tp2233
F0.5
s(I1
I7
I9
I3
I4
I5
tp2234
F-0.8049999999999999
s(I4
I7
I8
I5
I6
tp2235
F0.5
s(I4
I6
I9
tp2236
F0.5
s(I1
I3
I4
I8
I9
I2
I5
I6
I7
tp2237
F1.0
s(I2
I6
I7
I8
I1
I3
I5
tp2238
F1.0
s(I3
I4
I6
I8
I9
tp2239
F-1.0
s(I1
I2
I3
I9
tp2240
F0.9981999999818199
s(I2
I3
I5
I1
I8
tp2241
F0.5
s(I7
I2
tp2242
F0.5
s(I1
I5
I8
I7
I9
tp2243
F1.0
s(I1
I3
I8
I4
I9
tp2244
F0.5
s(I1
I3
I6
I8
I2
I4
I9
tp2245
F0.5
s(I1
I5
I6
I8
I2
I7
I9
tp2246
F0.5
s(I1
I8
I9
I3
I7
tp2247
F-1.0
s(I4
I6
I7
I8
I3
I5
I9
tp2248
F1.0
s(I1
I2
I5
I3
I6
tp2249
F-1.0
s(I1
I3
I7
I5
I6
I8
tp2250
F0.95
s(I4
I6
I8
I2
I5
tp2251
F0.5
s(I4
I8
I9
I3
I6
I7
tp2252
F-0.8500000000000001
s(I7
I9
I3
I4
tp2253
F0.95
s(I1
I4
I6
I7
tp2254
F0.5
s(I1
I5
I6
I7
I2
I4
I8
I9
tp2255
F0.9995
s(I1
I3
I7
I2
I8
tp2256
F-1.0
s(I6
I7
I9
tp2257
F0.5
s(I2
I4
I8
I3
I5
tp2258
F-1.0
s(I2
I3
I8
I5
I9
tp2259
F-1.0
s(I1
I3
I7
I8
I2
I5
I6
tp2260
F-1.0
s(I2
I4
I7
I8
I1
I5
I9
tp2261
F1.0
s(I1
I6
I2
tp2262
F0.5
s(I4
I6
tp2263
F0.5
s(I4
I8
I7
tp2264
F0.5
s(I4
I5
I8
tp2265
F0.5
s(I1
I2
I6
I4
I5
tp2266
F1.0
s(I1
I3
I6
I7
I2
I8
I9
tp2267
F1.0
s(I1
I5
I8
I4
I6
tp2268
F0.5
s(I1
I8
I5
I6
tp2269
F0.5
s(I2
I8
I1
tp2270
F0.5
s(I2
I7
I9
I1
I4
tp2271
F1.0
s(I1
I8
I9
I3
I5
I6
tp2272
F0.95
s(I1
I4
I3
I8
tp2273
F0.95
s(I1
I3
I4
I8
I2
I5
I7
I9
tp2274
F0.5
s(I1
I2
I4
I5
I3
I7
I9
tp2275
F-1.0
s(I1
I2
I5
I9
I3
I4
I7
tp2276
F1.0
s(I1
I2
I8
I3
I4
I5
tp2277
F-0.985
s(I2
I5
I8
I3
I9
tp2278
F1.0
s(I1
I2
I4
I6
tp2279
F0.9981981999999983
s(I2
I7
I5
tp2280
F0.5
s(I1
I2
I5
I6
I4
I7
I9
tp2281
F-1.0
s(I2
I3
I4
I6
I1
I8
I9
tp2282
F-1.0
s(I2
I6
I5
tp2283
F0.5
s(I1
I5
I6
I3
I7
tp2284
F0.5
s(I3
I6
I7
I4
I9
tp2285
F0.5
s(I1
I2
I8
I5
I6
I9
tp2286
F0.999995
s(I1
I5
I6
I2
I4
I7
tp2287
F0.5
s(I1
I3
I4
I6
I5
I7
I9
tp2288
F-1.0
s(I4
I7
I8
I2
I6
tp2289
F0.5
s(I1
I2
I9
I3
I6
tp2290
F1.0
s(I2
I3
I7
I1
I4
tp2291
F1.0
s(I3
I4
I6
I9
I1
I7
I8
tp2292
F1.0
s(I1
I7
I5
tp2293
F0.5
s(I1
I5
I7
I2
I4
tp2294
F0.5
s(I3
I5
tp2295
F0.5
s(I2
I6
I3
I9
tp2296
F0.95
s(I1
I7
I9
I3
I4
tp2297
F0.5
s(I3
I8
I4
I7
tp2298
F-0.8500000000000001
s(I1
I3
I4
I5
I2
I7
I9
tp2299
F-1.0
s(I3
I4
I9
I5
I7
tp2300
F1.0
s(I2
I3
I1
I4
tp2301
F0.95
s(I1
I6
I8
I9
I2
I3
I4
tp2302
F0.5
s(I2
I4
I6
I8
tp2303
F0.5
s(I1
I2
I6
I9
I4
I5
I8
tp2304
F0.5
s(I1
I7
I3
I9
tp2305
F0.99995
s(I2
I6
I8
I1
I5
tp2306
F-1.0
s(I1
I3
I4
I2
I9
tp2307
F0.5
s(I1
I6
I8
I2
I4
tp2308
F0.5
s(I1
I7
tp2309
F0.5
s(I1
I5
I2
I9
tp2310
F0.5
s(I2
I6
I7
I9
I1
I4
I5
tp2311
F1.0
s(I1
I3
I6
I4
I7
I9
tp2312
F0.95
s(I1
I3
I8
I9
I2
I4
I5
I6
tp2313
F0.9995
s(I1
I3
I2
tp2314
F0.5
s(I2
I3
I6
I8
I1
I5
I7
tp2315
F1.0
s(I1
I3
I5
I6
I7
I2
I4
I8
I9
tp2316
F1.0
s(I1
I5
I7
I4
I9
tp2317
F0.5
s(I3
I4
I9
I1
I7
tp2318
F1.0
s(I5
I7
I6
tp2319
F0.5
s(I1
I2
I5
I7
I3
I6
I8
tp2320
F-1.0
s(I1
I6
I7
I2
I4
I5
tp2321
F0.995
s(I5
I6
I7
I1
I8
tp2322
F0.5
s(I3
I5
I8
I4
I7
tp2323
F-1.0
s(I1
I3
I7
I2
I5
tp2324
F-1.0
s(I2
I7
I8
I3
I6
tp2325
F-1.0
s(I1
I2
I8
I9
I4
I5
I6
tp2326
F1.0
s(I6
I9
I8
tp2327
F0.5
s(I1
I2
I4
I6
I3
I7
I9
tp2328
F-1.0
s(I4
I8
I9
I3
I6
tp2329
F1.0
s(I1
I5
I8
I9
I4
I6
I7
tp2330
F1.0
s(I1
I5
I7
I6
I8
I9
tp2331
F0.95
s(I1
I6
I8
I2
I7
I9
tp2332
F0.5
s(I1
I2
I8
I5
I6
tp2333
F-1.0
s(I2
I8
I3
I5
tp2334
F-0.8500000000000001
s(I1
I6
I7
I8
I3
I5
I9
tp2335
F0.5
s(I2
I3
I4
I7
I1
I6
I9
tp2336
F-1.0
s(I3
I7
I8
I1
I5
tp2337
F-1.0
s(I1
I4
I9
I6
I7
tp2338
F0.5
s(I1
I4
I6
I7
I2
I3
I5
tp2339
F1.0
s(I5
I6
I8
I9
I1
I3
I4
I7
tp2340
F0.95
s(I1
I4
I9
I5
I8
tp2341
F-1.0
s(I1
I6
I9
I4
I8
tp2342
F0.5
s(I1
I7
I8
I9
I2
I3
I6
tp2343
F1.0
s(I1
I3
I7
I9
I4
I5
I6
I8
tp2344
F0.95
s(I2
I3
I5
I4
I7
tp2345
F-1.0
s(I1
I7
I8
I4
I9
tp2346
F0.5
s(I1
I4
I6
I7
I8
tp2347
F-1.0
s(I1
I9
I2
I4
tp2348
F0.995
s(I1
I6
I9
I2
I5
tp2349
F-1.0
s(I2
I5
I7
I8
I3
I4
I9
tp2350
F1.0
s(I1
I8
I5
I9
tp2351
F0.5
s(I1
I5
I7
I2
I6
I9
tp2352
F0.95
s(I5
I6
I8
I2
I4
tp2353
F0.5
s(I1
I4
I8
I9
I2
I5
I7
tp2354
F-1.0
s(I1
I4
I9
I3
I6
I8
tp2355
F0.995
s(I1
I4
I5
I8
I2
I3
I6
I9
tp2356
F0.995
s(I6
I7
I2
tp2357
F0.5
s(I1
I2
I6
I9
I3
I5
I7
I8
tp2358
F0.99995
s(I3
I5
I6
I4
I8
tp2359
F0.5
s(I2
I6
I7
I1
I5
tp2360
F-1.0
s(I1
I3
I5
I7
I4
I6
I9
tp2361
F1.0
s(I1
I2
I4
I5
I8
tp2362
F0.5
s(I1
I2
I7
I8
I3
I4
I5
tp2363
F-1.0
s(I2
I3
I9
I1
I7
I8
tp2364
F-0.8500000000000001
s(I1
I2
I4
I5
I7
I8
I9
tp2365
F1.0
s(I1
I3
I6
I2
I4
tp2366
F0.5
s(I8
I9
I6
tp2367
F0.5
s(I7
tp2368
F0.5
s(I1
I3
I8
I5
I7
tp2369
F1.0
s(I1
I2
I4
I7
I3
I6
I9
tp2370
F1.0
s(I1
I4
I5
I7
I3
I8
I9
tp2371
F1.0
s(I2
I5
I6
I7
I9
tp2372
F-1.0
s(I1
I3
I8
I2
I4
I7
tp2373
F0.5
s(I1
I3
I6
I8
tp2374
F0.95
s(I1
I2
I5
I7
I4
I6
I9
tp2375
F-1.0
s(I1
I2
I3
I6
I7
tp2376
F1.0
s(I1
I5
I6
I2
I8
I9
tp2377
F0.995
s(I1
I2
I6
I3
I4
I8
tp2378
F0.5
s(I1
I2
I6
tp2379
F0.5
s(I2
I8
I1
I6
tp2380
F0.95
s(I1
I4
I3
I7
tp2381
F-0.8500000000000001
s(I2
I6
I8
I3
I5
tp2382
F-1.0
s(I1
I3
I9
I4
I8
tp2383
F0.5
s(I1
I9
I4
I6
tp2384
F0.9995
s(I2
I3
I4
I8
I9
tp2385
F-1.0
s(I1
I3
I4
I5
I7
tp2386
F1.0
s(I2
I3
I4
tp2387
F0.5
s(I5
I6
I2
tp2388
F0.5
s(I2
I5
I6
I7
I1
I3
I4
I8
tp2389
F0.5
s(I1
I5
I8
I2
I6
tp2390
F0.5
s(I1
I4
I5
I3
I7
I8
tp2391
F0.95
s(I9
tp2392
F0.5
s(I1
I4
I6
I2
I5
I9
tp2393
F0.95
s(I2
I4
I6
I7
I8
I1
I3
I5
I9
tp2394
F1.0
s(I5
I8
I1
tp2395
F0.5
s(I1
I4
I8
I2
I5
tp2396
F0.5
s(I6
I7
I8
I2
I3
tp2397
F-1.0
s(I6
I7
I9
I2
I3
tp2398
F-1.0
s(I1
I6
I9
I5
I7
tp2399
F-1.0
s(I1
I3
I7
I2
I4
I8
tp2400
F0.95
s(I1
I5
I6
I2
I8
tp2401
F1.0
s(I1
I3
I7
I4
I8
I9
tp2402
F0.995
s(I1
I4
I6
I9
I3
I7
I8
tp2403
F-1.0
s(I1
I3
I7
I8
I2
I4
I5
I6
tp2404
F0.995
s(I1
I5
I8
I2
I4
I7
tp2405
F0.95
s(I2
I3
I8
I1
I9
tp2406
F-1.0
s(I1
I2
I7
I9
I3
I4
I8
tp2407
F0.5
s(I3
I6
I2
tp2408
F0.5
s(I5
I7
I9
I1
I6
tp2409
F0.5
s(I3
I9
I4
I7
tp2410
F0.95
s(I2
I4
I6
I9
I1
I7
I8
tp2411
F0.5
s(I1
I3
I8
I9
I2
I5
I7
tp2412
F0.5
s(I2
I6
I7
I9
I1
I5
I8
tp2413
F0.5
s(I1
I3
I6
I7
I2
I4
I5
I9
tp2414
F0.5
s(I2
I5
I9
I1
I4
I8
tp2415
F-0.8049999999999999
s(I1
I3
I6
I5
I8
tp2416
F-1.0
s(I1
I7
I8
I9
I2
I3
I4
tp2417
F1.0
s(I3
I4
I7
I1
I9
tp2418
F-1.0
s(I3
I5
I9
I1
I7
tp2419
F-1.0
s(I8
I3
tp2420
F0.5
s(I1
I3
I4
I8
tp2421
F0.95045
s(I1
I2
I6
I5
I7
I8
tp2422
F0.995
s(I1
I2
I4
I5
I9
I3
I6
I7
I8
tp2423
F1.0
s(I2
I8
I9
I3
I6
tp2424
F0.5
s(I1
I2
I4
I5
I6
I9
tp2425
F0.95
s(I1
I2
I3
I5
I9
tp2426
F1.0
s(I2
I6
I7
I1
I8
tp2427
F0.5
s(I1
I2
I3
I7
I9
I4
I5
I6
I8
tp2428
F1.0
s(I4
I8
I2
I5
tp2429
F0.5
s(I1
I4
I7
tp2430
F0.5
s(I3
I8
I9
I1
I7
tp2431
F-1.0
s(I2
I5
I8
I7
I9
tp2432
F1.0
s(I1
I2
I4
I5
I6
I7
I9
tp2433
F-1.0
s(I4
I5
I6
I3
I9
tp2434
F1.0
s(I1
I7
I2
I6
tp2435
F0.95
s(I1
I4
I8
I9
I3
I5
I6
I7
tp2436
F0.995
s(I1
I2
I5
I6
I3
I7
I9
tp2437
F1.0
s(I2
I6
I9
I1
I5
tp2438
F1.0
s(I1
I3
I4
I5
I9
I2
I6
I7
I8
tp2439
F1.0
s(I1
I2
I4
I9
I6
I7
I8
tp2440
F1.0
s(I3
I7
I1
tp2441
F0.5
s(I1
I4
I5
I8
I3
I6
I7
I9
tp2442
F0.9995
s(I1
I4
I7
I2
I8
tp2443
F1.0
s(I6
I8
I9
I1
I5
tp2444
F0.5
s(I1
I2
I7
I8
I4
I5
I9
tp2445
F-1.0
s(I1
I5
I8
I3
I9
tp2446
F-1.0
s(I1
I2
I4
I3
I8
tp2447
F0.5
s(I3
I8
I5
tp2448
F0.5
s(I1
I2
I5
I6
I3
I4
I8
tp2449
F0.5
s(I2
I6
I7
I3
I5
I9
tp2450
F0.95
s(I1
I3
I4
I5
I8
tp2451
F-1.0
s(I1
I5
I4
tp2452
F0.5
s(I5
I8
I4
I9
tp2453
F0.95
s(I4
I6
I2
tp2454
F0.5
s(I1
I2
I7
I8
I9
I3
I4
I5
I6
tp2455
F1.0
s(I1
I2
I5
I6
I3
I4
I7
I9
tp2456
F0.995
s(I1
I4
I7
I3
I9
tp2457
F1.0
s(I1
I5
I6
I2
I3
tp2458
F0.5
s(I1
I2
I5
I4
I6
I9
tp2459
F-0.8500000000000001
s(I3
I7
I9
I1
I5
tp2460
F0.5
s(I1
I3
I4
I5
I2
I7
I8
I9
tp2461
F0.95
s(I1
I7
I5
I9
tp2462
F0.5499499999999999
s(I2
I3
I4
I6
I7
tp2463
F0.5
s(I2
I4
I1
tp2464
F0.5
s(I1
I5
I8
I9
tp2465
F0.999995
s(I3
I4
I6
I5
I8
I9
tp2466
F0.95
s(I1
I5
I4
I8
tp2467
F0.5449999999999999
s(I1
I3
I5
I6
I2
I4
I9
tp2468
F0.5
s(I4
I5
I6
I1
I9
tp2469
F1.0
s(I1
I2
I6
I4
I7
I9
tp2470
F0.95
s(I6
I3
tp2471
F0.5
s(I3
I5
I8
I2
I4
tp2472
F0.5
s(I1
I2
I6
I7
I4
I5
I8
I9
tp2473
F0.95
s(I2
I6
I8
I9
I1
I4
I5
tp2474
F1.0
s(I1
I3
I7
I6
I9
tp2475
F0.5
s(I3
I8
I9
I1
I2
tp2476
F0.5
s(I1
I3
I7
I8
I4
I5
I9
tp2477
F-1.0
s(I1
I6
I5
tp2478
F0.5
s(I1
I2
I9
I3
I5
I8
tp2479
F0.4999998515
s(I1
I9
I4
tp2480
F0.5
s(I4
I5
I3
tp2481
F0.5
s(I2
I3
I8
I6
I7
tp2482
F0.5
s(I1
I2
I4
I3
I5
tp2483
F-1.0
s(I7
I8
I9
tp2484
F0.5
s(I1
I2
I3
I5
I4
I7
I8
tp2485
F1.0
s(I1
I8
I9
I3
I4
tp2486
F0.5
s(I1
I2
I5
I6
tp2487
F0.8199982
s(I1
I7
I9
I2
I5
tp2488
F-1.0
s(I6
I8
tp2489
F0.5
s(I2
I4
I5
I6
I1
I8
I9
tp2490
F1.0
s(I3
I5
I7
I4
I9
tp2491
F1.0
s(I3
I5
I6
I1
I2
I7
tp2492
F0.95
s(I1
I6
I8
I9
I2
I3
I4
I5
tp2493
F0.995
s(I3
I5
I7
tp2494
F0.5
s(I5
I6
I9
I4
I8
tp2495
F0.5
s(I2
I4
I8
I3
I6
tp2496
F-1.0
s(I1
I2
I6
I7
I3
I5
I8
tp2497
F0.5
s.